	.text
	.file	"out.ll"
	.globl	sqrt
	.align	16, 0x90
	.type	sqrt,@function
sqrt:                                   # @sqrt
	.cfi_startproc
# BB#0:
	fldl	4(%esp)
	fsqrt
	retl
.Ltmp0:
	.size	sqrt, .Ltmp0-sqrt
	.cfi_endproc

	.globl	KMM$$init
	.align	16, 0x90
	.type	KMM$$init,@function
KMM$$init:                              # @"KMM$$init"
	.cfi_startproc
# BB#0:
	pushl	%eax
.Ltmp1:
	.cfi_def_cfa_offset 8
	movl	8(%esp), %eax
	movl	%eax, (%esp)
	movl	%eax, gvar_fmm_mu_lu_n1__mm_head
	movl	%eax, gvar_fmm_mu_lu_n2__mm_pos
	movl	$-559038737, gvar_fmm_mu_lu_n3__last_alloc # imm = 0xFFFFFFFFDEADBEEF
	popl	%eax
	retl
.Ltmp2:
	.size	KMM$$init, .Ltmp2-KMM$$init
	.cfi_endproc

	.globl	malloc
	.align	16, 0x90
	.type	malloc,@function
malloc:                                 # @malloc
	.cfi_startproc
# BB#0:
	subl	$28, %esp
.Ltmp3:
	.cfi_def_cfa_offset 32
	movl	32(%esp), %eax
	movl	%eax, 24(%esp)
	movl	gvar_fmm_mu_lu_n2__mm_pos, %eax
	movl	%eax, 20(%esp)
	movl	gvar_fmm_mu_lu_n2__mm_pos, %eax
	movl	24(%esp), %ecx
	movl	%ecx, 4(%esp)
	movl	%eax, (%esp)
	calll	ptr$offset
	movl	%eax, gvar_fmm_mu_lu_n2__mm_pos
	movl	20(%esp), %eax
	movl	%eax, gvar_fmm_mu_lu_n3__last_alloc
	movl	20(%esp), %eax
	addl	$28, %esp
	retl
.Ltmp4:
	.size	malloc, .Ltmp4-malloc
	.cfi_endproc

	.globl	malign
	.align	16, 0x90
	.type	malign,@function
malign:                                 # @malign
	.cfi_startproc
# BB#0:
	pushl	%esi
.Ltmp5:
	.cfi_def_cfa_offset 8
	subl	$24, %esp
.Ltmp6:
	.cfi_def_cfa_offset 32
.Ltmp7:
	.cfi_offset %esi, -8
	movl	32(%esp), %esi
	movl	%esi, 20(%esp)
	movl	gvar_fmm_mu_lu_n2__mm_pos, %ecx
	movl	%ecx, %eax
	cltd
	idivl	%esi
	subl	%edx, %esi
	movl	%esi, 4(%esp)
	movl	%ecx, (%esp)
	calll	ptr$offset
	movl	%eax, gvar_fmm_mu_lu_n2__mm_pos
	addl	$24, %esp
	popl	%esi
	retl
.Ltmp8:
	.size	malign, .Ltmp8-malign
	.cfi_endproc

	.globl	free
	.align	16, 0x90
	.type	free,@function
free:                                   # @free
	.cfi_startproc
# BB#0:
	pushl	%eax
.Ltmp9:
	.cfi_def_cfa_offset 8
	movl	8(%esp), %eax
	movl	%eax, (%esp)
	cmpl	%eax, gvar_fmm_mu_lu_n3__last_alloc
	jne	.LBB4_2
# BB#1:                                 # %if_fmm_mfree_l27_n52___SUCC
	movl	gvar_fmm_mu_lu_n3__last_alloc, %eax
	movl	%eax, gvar_fmm_mu_lu_n2__mm_pos
	movl	$-559038737, gvar_fmm_mu_lu_n3__last_alloc # imm = 0xFFFFFFFFDEADBEEF
.LBB4_2:                                # %if_fmm_mfree_l27_n52___DONE
	popl	%eax
	retl
.Ltmp10:
	.size	free, .Ltmp10-free
	.cfi_endproc

	.globl	memset
	.align	16, 0x90
	.type	memset,@function
memset:                                 # @memset
	.cfi_startproc
# BB#0:
	subl	$16, %esp
.Ltmp11:
	.cfi_def_cfa_offset 20
	movb	28(%esp), %al
	movl	24(%esp), %ecx
	movl	20(%esp), %edx
	movl	%edx, 12(%esp)
	movl	%ecx, 8(%esp)
	movb	%al, 7(%esp)
	movl	$0, (%esp)
	cmpl	$0, 8(%esp)
	jle	.LBB5_2
	.align	16, 0x90
.LBB5_1:                                # %fmm_mmemset_l35_n61___LOOP___HEAD
                                        # =>This Inner Loop Header: Depth=1
	movl	12(%esp), %eax
	movl	(%esp), %ecx
	movb	7(%esp), %dl
	movb	%dl, (%eax,%ecx)
	movl	(%esp), %eax
	incl	%eax
	movl	%eax, (%esp)
	cmpl	8(%esp), %eax
	jl	.LBB5_1
.LBB5_2:                                # %fmm_mmemset_l35_n61___LOOP___END
	addl	$16, %esp
	retl
.Ltmp12:
	.size	memset, .Ltmp12-memset
	.cfi_endproc

	.globl	memcpy
	.align	16, 0x90
	.type	memcpy,@function
memcpy:                                 # @memcpy
	.cfi_startproc
# BB#0:
	subl	$16, %esp
.Ltmp13:
	.cfi_def_cfa_offset 20
	movl	28(%esp), %eax
	movl	24(%esp), %ecx
	movl	20(%esp), %edx
	movl	%edx, 12(%esp)
	movl	%ecx, 8(%esp)
	movl	%eax, 4(%esp)
	movl	$0, (%esp)
	cmpl	$0, 4(%esp)
	jle	.LBB6_2
	.align	16, 0x90
.LBB6_1:                                # %fmm_mmemcpy_l43_n82___LOOP___HEAD
                                        # =>This Inner Loop Header: Depth=1
	movl	8(%esp), %eax
	movl	(%esp), %ecx
	movl	12(%esp), %edx
	movb	(%edx,%ecx), %dl
	movb	%dl, (%eax,%ecx)
	movl	(%esp), %eax
	incl	%eax
	movl	%eax, (%esp)
	cmpl	4(%esp), %eax
	jl	.LBB6_1
.LBB6_2:                                # %fmm_mmemcpy_l43_n82___LOOP___END
	addl	$16, %esp
	retl
.Ltmp14:
	.size	memcpy, .Ltmp14-memcpy
	.cfi_endproc

	.globl	memcpy32
	.align	16, 0x90
	.type	memcpy32,@function
memcpy32:                               # @memcpy32
	.cfi_startproc
# BB#0:
	pushl	%esi
.Ltmp15:
	.cfi_def_cfa_offset 8
	subl	$24, %esp
.Ltmp16:
	.cfi_def_cfa_offset 32
.Ltmp17:
	.cfi_offset %esi, -8
	movl	40(%esp), %eax
	movl	36(%esp), %ecx
	movl	32(%esp), %edx
	movl	%edx, 20(%esp)
	movl	%ecx, 16(%esp)
	movl	%eax, 12(%esp)
	cmpl	$4, %eax
	jl	.LBB7_2
	.align	16, 0x90
.LBB7_1:                                # %fmm_mmemcpy32_l54_n106___LOOP___HEAD
                                        # =>This Inner Loop Header: Depth=1
	movl	16(%esp), %eax
	movl	12(%esp), %ecx
	movl	%ecx, 4(%esp)
	movl	%eax, (%esp)
	calll	ptr$offset
	movl	%eax, %esi
	movl	20(%esp), %eax
	movl	12(%esp), %ecx
	movl	%ecx, 4(%esp)
	movl	%eax, (%esp)
	calll	ptr$offset
	movl	(%eax), %eax
	movl	%eax, (%esi)
	movl	12(%esp), %eax
	addl	$-4, %eax
	movl	%eax, 12(%esp)
	cmpl	$3, %eax
	jg	.LBB7_1
.LBB7_2:                                # %fmm_mmemcpy32_l54_n106___LOOP___END
	addl	$24, %esp
	popl	%esi
	retl
.Ltmp18:
	.size	memcpy32, .Ltmp18-memcpy32
	.cfi_endproc

	.globl	ptr$offset
	.align	16, 0x90
	.type	ptr$offset,@function
ptr$offset:                             # @"ptr$offset"
	.cfi_startproc
# BB#0:
	subl	$8, %esp
.Ltmp19:
	.cfi_def_cfa_offset 12
	movl	16(%esp), %eax
	movl	12(%esp), %ecx
	movl	%ecx, 4(%esp)
	movl	%eax, (%esp)
	addl	4(%esp), %eax
	addl	$8, %esp
	retl
.Ltmp20:
	.size	ptr$offset, .Ltmp20-ptr$offset
	.cfi_endproc

	.globl	GDTEntry$$new
	.align	16, 0x90
	.type	GDTEntry$$new,@function
GDTEntry$$new:                          # @"GDTEntry$$new"
	.cfi_startproc
# BB#0:
	pushl	%esi
.Ltmp21:
	.cfi_def_cfa_offset 8
	subl	$40, %esp
.Ltmp22:
	.cfi_def_cfa_offset 48
.Ltmp23:
	.cfi_offset %esi, -8
	movb	60(%esp), %al
	movb	56(%esp), %cl
	movl	52(%esp), %edx
	movl	48(%esp), %esi
	movl	%esi, 36(%esp)
	movl	%edx, 32(%esp)
	andb	$1, %cl
	movb	%cl, 31(%esp)
	andb	$1, %al
	movb	%al, 30(%esp)
	movl	$8, (%esp)
	calll	malloc
	movl	%eax, 24(%esp)
	movl	32(%esp), %eax
	subl	36(%esp), %eax
	movl	%eax, 20(%esp)
	movb	$0, 19(%esp)
	cmpl	$1048576, 20(%esp)      # imm = 0x100000
	jb	.LBB9_2
# BB#1:                                 # %if_fmm_mGDTEntry$$new_l79_n156___SUCC
	shrl	$12, 20(%esp)
	movb	$1, 19(%esp)
.LBB9_2:                                # %if_fmm_mGDTEntry$$new_l79_n156___DONE
	movl	24(%esp), %eax
	movw	20(%esp), %cx
	movw	%cx, (%eax)
	movl	24(%esp), %eax
	movzwl	22(%esp), %ecx
	andl	$15, %ecx
	movb	%cl, 6(%eax)
	movl	24(%esp), %eax
	movw	36(%esp), %cx
	movw	%cx, 2(%eax)
	movl	24(%esp), %eax
	movb	38(%esp), %cl
	movb	%cl, 4(%eax)
	movl	24(%esp), %eax
	movb	39(%esp), %cl
	movb	%cl, 7(%eax)
	movl	24(%esp), %eax
	addb	$64, 6(%eax)
	movl	24(%esp), %eax
	movb	$-110, 5(%eax)
	movzbl	30(%esp), %eax
	cmpl	$1, %eax
	jne	.LBB9_4
# BB#3:                                 # %if_fmm_mGDTEntry$$new_l101_n211___SUCC
	movl	24(%esp), %eax
	addb	$96, 5(%eax)
.LBB9_4:                                # %if_fmm_mGDTEntry$$new_l101_n211___DONE
	movzbl	31(%esp), %eax
	cmpl	$1, %eax
	jne	.LBB9_6
# BB#5:                                 # %if_fmm_mGDTEntry$$new_l106_n221___SUCC
	movl	24(%esp), %eax
	addb	$8, 5(%eax)
.LBB9_6:                                # %if_fmm_mGDTEntry$$new_l106_n221___DONE
	movzbl	19(%esp), %eax
	cmpl	$1, %eax
	jne	.LBB9_8
# BB#7:                                 # %if_fmm_mGDTEntry$$new_l111_n231___SUCC
	movl	24(%esp), %eax
	addb	$-128, 6(%eax)
.LBB9_8:                                # %if_fmm_mGDTEntry$$new_l111_n231___DONE
	movl	24(%esp), %eax
	addl	$40, %esp
	popl	%esi
	retl
.Ltmp24:
	.size	GDTEntry$$new, .Ltmp24-GDTEntry$$new
	.cfi_endproc

	.globl	GDTEntry$print
	.align	16, 0x90
	.type	GDTEntry$print,@function
GDTEntry$print:                         # @"GDTEntry$print"
	.cfi_startproc
# BB#0:
	subl	$12, %esp
.Ltmp25:
	.cfi_def_cfa_offset 16
	movl	16(%esp), %eax
	movl	%eax, 8(%esp)
	movl	gvar_fin_mu_lu_n8__kterm, %eax
	movl	%eax, (%esp)
	movl	$.Lstrglobal_fmm_mGDTEntry$print_l119_n244, 4(%esp)
	calll	Terminal$print
	movl	gvar_fin_mu_lu_n8__kterm, %eax
	movl	8(%esp), %ecx
	movzwl	(%ecx), %ecx
	movl	%ecx, 4(%esp)
	movl	%eax, (%esp)
	calll	Terminal$printi
	movl	gvar_fin_mu_lu_n8__kterm, %eax
	movl	%eax, (%esp)
	movl	$.Lstrglobal_fmm_mGDTEntry$print_l121_n255, 4(%esp)
	calll	Terminal$print
	movl	gvar_fin_mu_lu_n8__kterm, %eax
	movl	8(%esp), %ecx
	movzwl	2(%ecx), %ecx
	movl	%ecx, 4(%esp)
	movl	%eax, (%esp)
	calll	Terminal$printi
	movl	gvar_fin_mu_lu_n8__kterm, %eax
	movl	%eax, (%esp)
	movl	$.Lstrglobal_fmm_mGDTEntry$print_l123_n266, 4(%esp)
	calll	Terminal$print
	movl	gvar_fin_mu_lu_n8__kterm, %eax
	movl	8(%esp), %ecx
	movzbl	4(%ecx), %ecx
	movl	%ecx, 4(%esp)
	movl	%eax, (%esp)
	calll	Terminal$printi
	movl	gvar_fin_mu_lu_n8__kterm, %eax
	movl	%eax, (%esp)
	movl	$.Lstrglobal_fmm_mGDTEntry$print_l125_n277, 4(%esp)
	calll	Terminal$print
	movl	gvar_fin_mu_lu_n8__kterm, %eax
	movl	8(%esp), %ecx
	movzbl	5(%ecx), %ecx
	movl	%ecx, 4(%esp)
	movl	%eax, (%esp)
	calll	Terminal$printi
	movl	gvar_fin_mu_lu_n8__kterm, %eax
	movl	%eax, (%esp)
	movl	$.Lstrglobal_fmm_mGDTEntry$print_l127_n288, 4(%esp)
	calll	Terminal$print
	movl	gvar_fin_mu_lu_n8__kterm, %eax
	movl	8(%esp), %ecx
	movzbl	6(%ecx), %ecx
	movl	%ecx, 4(%esp)
	movl	%eax, (%esp)
	calll	Terminal$printi
	movl	gvar_fin_mu_lu_n8__kterm, %eax
	movl	%eax, (%esp)
	movl	$.Lstrglobal_fmm_mGDTEntry$print_l129_n299, 4(%esp)
	calll	Terminal$print
	movl	gvar_fin_mu_lu_n8__kterm, %eax
	movl	8(%esp), %ecx
	movzbl	7(%ecx), %ecx
	movl	%ecx, 4(%esp)
	movl	%eax, (%esp)
	calll	Terminal$printi
	movl	gvar_fin_mu_lu_n8__kterm, %eax
	movl	%eax, (%esp)
	movl	$.Lstrglobal_fmm_mGDTEntry$print_l131_n310, 4(%esp)
	calll	Terminal$printl
	addl	$12, %esp
	retl
.Ltmp26:
	.size	GDTEntry$print, .Ltmp26-GDTEntry$print
	.cfi_endproc

	.globl	GDT$$new
	.align	16, 0x90
	.type	GDT$$new,@function
GDT$$new:                               # @"GDT$$new"
	.cfi_startproc
# BB#0:
	pushl	%esi
.Ltmp27:
	.cfi_def_cfa_offset 8
	subl	$24, %esp
.Ltmp28:
	.cfi_def_cfa_offset 32
.Ltmp29:
	.cfi_offset %esi, -8
	movl	32(%esp), %eax
	movl	%eax, 20(%esp)
	movl	$256, (%esp)            # imm = 0x100
	calll	malign
	movl	$10, (%esp)
	calll	malloc
	movl	%eax, 16(%esp)
	movl	20(%esp), %ecx
	leal	8(,%ecx,8), %ecx
	movw	%cx, (%eax)
	movl	$256, (%esp)            # imm = 0x100
	calll	malign
	movl	16(%esp), %esi
	movzwl	(%esi), %eax
	movl	%eax, (%esp)
	calll	malloc
	movl	%eax, 2(%esi)
	movl	16(%esp), %eax
	movl	$1, 6(%eax)
	movl	16(%esp), %eax
	movl	2(%eax), %ecx
	movzwl	(%eax), %eax
	movl	%eax, 4(%esp)
	movl	%ecx, (%esp)
	movl	$0, 8(%esp)
	calll	memset
	movl	16(%esp), %eax
	decw	(%eax)
	movl	16(%esp), %eax
	addl	$24, %esp
	popl	%esi
	retl
.Ltmp30:
	.size	GDT$$new, .Ltmp30-GDT$$new
	.cfi_endproc

	.globl	GDT$insert
	.align	16, 0x90
	.type	GDT$insert,@function
GDT$insert:                             # @"GDT$insert"
	.cfi_startproc
# BB#0:
	subl	$44, %esp
.Ltmp31:
	.cfi_def_cfa_offset 48
	movl	56(%esp), %eax
	movl	52(%esp), %ecx
	movl	48(%esp), %edx
	movl	%edx, 40(%esp)
	movl	%ecx, 36(%esp)
	movl	%eax, 32(%esp)
	movl	$8, 28(%esp)
	movl	40(%esp), %eax
	movl	2(%eax), %eax
	movl	36(%esp), %ecx
	shll	$3, %ecx
	movl	%ecx, 4(%esp)
	movl	%eax, (%esp)
	calll	ptr$offset
	movl	%eax, 24(%esp)
	movl	32(%esp), %ecx
	movl	28(%esp), %edx
	movl	%edx, 8(%esp)
	movl	%eax, 4(%esp)
	movl	%ecx, (%esp)
	calll	memcpy
	addl	$44, %esp
	retl
.Ltmp32:
	.size	GDT$insert, .Ltmp32-GDT$insert
	.cfi_endproc

	.globl	GDT$add
	.align	16, 0x90
	.type	GDT$add,@function
GDT$add:                                # @"GDT$add"
	.cfi_startproc
# BB#0:
	subl	$28, %esp
.Ltmp33:
	.cfi_def_cfa_offset 32
	movl	36(%esp), %eax
	movl	32(%esp), %ecx
	movl	%ecx, 24(%esp)
	movl	%eax, 20(%esp)
	movl	24(%esp), %ecx
	movl	6(%ecx), %edx
	movl	%eax, 8(%esp)
	movl	%edx, 4(%esp)
	movl	%ecx, (%esp)
	calll	GDT$insert
	movl	24(%esp), %eax
	incl	6(%eax)
	addl	$28, %esp
	retl
.Ltmp34:
	.size	GDT$add, .Ltmp34-GDT$add
	.cfi_endproc

	.globl	install_gdt
	.align	16, 0x90
	.type	install_gdt,@function
install_gdt:                            # @install_gdt
	.cfi_startproc
# BB#0:
	subl	$28, %esp
.Ltmp35:
	.cfi_def_cfa_offset 32
	movl	$2, (%esp)
	calll	GDT$$new
	movl	%eax, 24(%esp)
	movl	$0, 12(%esp)
	movl	$1, 8(%esp)
	movl	$-1, 4(%esp)
	movl	$0, (%esp)
	calll	GDTEntry$$new
	movl	%eax, 20(%esp)
	movl	24(%esp), %ecx
	movl	%eax, 4(%esp)
	movl	%ecx, (%esp)
	calll	GDT$add
	movl	$0, 12(%esp)
	movl	$0, 8(%esp)
	movl	$-1, 4(%esp)
	movl	$0, (%esp)
	calll	GDTEntry$$new
	movl	%eax, 16(%esp)
	movl	24(%esp), %ecx
	movl	%eax, 4(%esp)
	movl	%ecx, (%esp)
	calll	GDT$add
	movl	gvar_fin_mu_lu_n8__kterm, %eax
	movl	%eax, (%esp)
	movl	$.Lstrglobal_fmm_minstall_gdt_l172_n431, 4(%esp)
	calll	Terminal$print
	movl	gvar_fin_mu_lu_n8__kterm, %eax
	movl	24(%esp), %ecx
	movl	%ecx, 4(%esp)
	movl	%eax, (%esp)
	calll	Terminal$dumphexi
	movl	24(%esp), %eax
	movl	%eax, (%esp)
	calll	__klgdt
	addl	$28, %esp
	retl
.Ltmp36:
	.size	install_gdt, .Ltmp36-install_gdt
	.cfi_endproc

	.globl	InternalIDTHandlerLookupTable$get
	.align	16, 0x90
	.type	InternalIDTHandlerLookupTable$get,@function
InternalIDTHandlerLookupTable$get:      # @"InternalIDTHandlerLookupTable$get"
	.cfi_startproc
# BB#0:
	subl	$28, %esp
.Ltmp37:
	.cfi_def_cfa_offset 32
	movl	36(%esp), %eax
	movl	32(%esp), %ecx
	movl	%ecx, 24(%esp)
	movl	%eax, 20(%esp)
	movl	24(%esp), %ecx
	leal	4(,%eax,4), %eax
	movl	%eax, 4(%esp)
	movl	%ecx, (%esp)
	calll	ptr$offset
	movl	(%eax), %eax
	addl	$28, %esp
	retl
.Ltmp38:
	.size	InternalIDTHandlerLookupTable$get, .Ltmp38-InternalIDTHandlerLookupTable$get
	.cfi_endproc

	.globl	write_port
	.align	16, 0x90
	.type	write_port,@function
write_port:                             # @write_port
	.cfi_startproc
# BB#0:
	subl	$28, %esp
.Ltmp39:
	.cfi_def_cfa_offset 32
	movl	36(%esp), %eax
	movl	32(%esp), %ecx
	movl	%ecx, 24(%esp)
	movl	%eax, 20(%esp)
	movl	24(%esp), %ecx
	movl	%eax, 4(%esp)
	movl	%ecx, (%esp)
	calll	__kwritepb
	addl	$28, %esp
	retl
.Ltmp40:
	.size	write_port, .Ltmp40-write_port
	.cfi_endproc

	.globl	read_port
	.align	16, 0x90
	.type	read_port,@function
read_port:                              # @read_port
	.cfi_startproc
# BB#0:
	subl	$12, %esp
.Ltmp41:
	.cfi_def_cfa_offset 16
	movl	16(%esp), %eax
	movl	%eax, 8(%esp)
	movl	%eax, (%esp)
	calll	__kreadpb
	movzbl	%al, %eax
	addl	$12, %esp
	retl
.Ltmp42:
	.size	read_port, .Ltmp42-read_port
	.cfi_endproc

	.globl	IRQHandlerTable$$new
	.align	16, 0x90
	.type	IRQHandlerTable$$new,@function
IRQHandlerTable$$new:                   # @"IRQHandlerTable$$new"
	.cfi_startproc
# BB#0:
	subl	$28, %esp
.Ltmp43:
	.cfi_def_cfa_offset 32
	movl	32(%esp), %eax
	movl	%eax, 24(%esp)
	shll	$2, %eax
	movl	%eax, (%esp)
	calll	malloc
	movl	%eax, 20(%esp)
	movl	24(%esp), %ecx
	shll	$2, %ecx
	movl	%ecx, 4(%esp)
	movl	%eax, (%esp)
	movl	$0, 8(%esp)
	calll	memset
	movl	20(%esp), %eax
	addl	$28, %esp
	retl
.Ltmp44:
	.size	IRQHandlerTable$$new, .Ltmp44-IRQHandlerTable$$new
	.cfi_endproc

	.globl	IRQHandlerTable$set
	.align	16, 0x90
	.type	IRQHandlerTable$set,@function
IRQHandlerTable$set:                    # @"IRQHandlerTable$set"
	.cfi_startproc
# BB#0:
	subl	$28, %esp
.Ltmp45:
	.cfi_def_cfa_offset 32
	movl	40(%esp), %eax
	movl	36(%esp), %ecx
	movl	32(%esp), %edx
	movl	%edx, 24(%esp)
	movl	%ecx, 20(%esp)
	movl	%eax, 16(%esp)
	movl	24(%esp), %eax
	movl	20(%esp), %ecx
	shll	$2, %ecx
	movl	%ecx, 4(%esp)
	movl	%eax, (%esp)
	calll	ptr$offset
	movl	16(%esp), %ecx
	movl	%ecx, (%eax)
	addl	$28, %esp
	retl
.Ltmp46:
	.size	IRQHandlerTable$set, .Ltmp46-IRQHandlerTable$set
	.cfi_endproc

	.globl	IRQHandlerTable$get
	.align	16, 0x90
	.type	IRQHandlerTable$get,@function
IRQHandlerTable$get:                    # @"IRQHandlerTable$get"
	.cfi_startproc
# BB#0:
	subl	$28, %esp
.Ltmp47:
	.cfi_def_cfa_offset 32
	movl	36(%esp), %eax
	movl	32(%esp), %ecx
	movl	%ecx, 24(%esp)
	movl	%eax, 20(%esp)
	movl	24(%esp), %ecx
	shll	$2, %eax
	movl	%eax, 4(%esp)
	movl	%ecx, (%esp)
	calll	ptr$offset
	movl	(%eax), %eax
	addl	$28, %esp
	retl
.Ltmp48:
	.size	IRQHandlerTable$get, .Ltmp48-IRQHandlerTable$get
	.cfi_endproc

	.globl	IDTEntry$set
	.align	16, 0x90
	.type	IDTEntry$set,@function
IDTEntry$set:                           # @"IDTEntry$set"
	.cfi_startproc
# BB#0:
	subl	$8, %esp
.Ltmp49:
	.cfi_def_cfa_offset 12
	movl	16(%esp), %eax
	movl	12(%esp), %ecx
	movl	%ecx, 4(%esp)
	movl	%eax, (%esp)
	movl	4(%esp), %eax
	movw	(%esp), %cx
	movw	%cx, (%eax)
	movl	4(%esp), %eax
	movw	$8, 2(%eax)
	movl	4(%esp), %eax
	movb	$0, 4(%eax)
	movl	4(%esp), %eax
	movb	$-114, 5(%eax)
	movl	4(%esp), %eax
	movw	2(%esp), %cx
	movw	%cx, 6(%eax)
	addl	$8, %esp
	retl
.Ltmp50:
	.size	IDTEntry$set, .Ltmp50-IDTEntry$set
	.cfi_endproc

	.globl	IDT$$create
	.align	16, 0x90
	.type	IDT$$create,@function
IDT$$create:                            # @"IDT$$create"
	.cfi_startproc
# BB#0:
	pushl	%esi
.Ltmp51:
	.cfi_def_cfa_offset 8
	subl	$24, %esp
.Ltmp52:
	.cfi_def_cfa_offset 32
.Ltmp53:
	.cfi_offset %esi, -8
	movl	$14, (%esp)
	calll	malloc
	movl	%eax, 20(%esp)
	movw	$2047, (%eax)           # imm = 0x7FF
	movl	20(%esp), %esi
	movzwl	(%esi), %eax
	incl	%eax
	movl	%eax, (%esp)
	calll	malloc
	movl	%eax, 2(%esi)
	movl	20(%esp), %eax
	movl	2(%eax), %ecx
	movzwl	(%eax), %eax
	incl	%eax
	movl	%eax, 4(%esp)
	movl	%ecx, (%esp)
	movl	$0, 8(%esp)
	calll	memset
	movl	20(%esp), %esi
	movl	$256, (%esp)            # imm = 0x100
	calll	IRQHandlerTable$$new
	movl	%eax, 6(%esi)
	movl	20(%esp), %eax
	addl	$24, %esp
	popl	%esi
	retl
.Ltmp54:
	.size	IDT$$create, .Ltmp54-IDT$$create
	.cfi_endproc

	.globl	IDT$install_internal_entry
	.align	16, 0x90
	.type	IDT$install_internal_entry,@function
IDT$install_internal_entry:             # @"IDT$install_internal_entry"
	.cfi_startproc
# BB#0:
	subl	$28, %esp
.Ltmp55:
	.cfi_def_cfa_offset 32
	movl	40(%esp), %eax
	movl	36(%esp), %ecx
	movl	32(%esp), %edx
	movl	%edx, 24(%esp)
	movl	%ecx, 20(%esp)
	movl	%eax, 16(%esp)
	movl	$8, 12(%esp)
	movl	24(%esp), %eax
	movl	2(%eax), %eax
	movl	16(%esp), %ecx
	shll	$3, %ecx
	movl	%ecx, 4(%esp)
	movl	%eax, (%esp)
	calll	ptr$offset
	movl	%eax, 8(%esp)
	movl	20(%esp), %ecx
	movl	%ecx, 4(%esp)
	movl	%eax, (%esp)
	calll	IDTEntry$set
	addl	$28, %esp
	retl
.Ltmp56:
	.size	IDT$install_internal_entry, .Ltmp56-IDT$install_internal_entry
	.cfi_endproc

	.globl	setup_irq
	.align	16, 0x90
	.type	setup_irq,@function
setup_irq:                              # @setup_irq
	.cfi_startproc
# BB#0:
	pushl	%esi
.Ltmp57:
	.cfi_def_cfa_offset 8
	subl	$24, %esp
.Ltmp58:
	.cfi_def_cfa_offset 32
.Ltmp59:
	.cfi_offset %esi, -8
	calll	IDT$$create
	movl	%eax, gvar_firqio_mu_lu_n4__idt
	movl	gvar_fin_mu_lu_n8__kterm, %eax
	movl	%eax, (%esp)
	movl	$.Lstrglobal_firqio_msetup_irq_l88_n606, 4(%esp)
	calll	Terminal$print
	movl	gvar_fin_mu_lu_n8__kterm, %eax
	movl	gvar_firqio_mu_lu_n4__idt, %ecx
	movl	2(%ecx), %ecx
	movl	%ecx, 4(%esp)
	movl	%eax, (%esp)
	calll	Terminal$dumphexi
	calll	__kget_internal_irq_table
	movl	%eax, 20(%esp)
	movl	$0, 16(%esp)
	movl	20(%esp), %eax
	cmpl	$0, (%eax)
	jle	.LBB24_2
	.align	16, 0x90
.LBB24_1:                               # %firqio_msetup_irq_l93_n620___LOOP___HEAD
                                        # =>This Inner Loop Header: Depth=1
	movl	gvar_firqio_mu_lu_n4__idt, %esi
	movl	20(%esp), %eax
	movl	16(%esp), %ecx
	movl	%ecx, 4(%esp)
	movl	%eax, (%esp)
	calll	InternalIDTHandlerLookupTable$get
	movl	16(%esp), %ecx
	movl	%ecx, 8(%esp)
	movl	%eax, 4(%esp)
	movl	%esi, (%esp)
	calll	IDT$install_internal_entry
	movl	16(%esp), %eax
	incl	%eax
	movl	%eax, 16(%esp)
	movl	20(%esp), %ecx
	cmpl	(%ecx), %eax
	jl	.LBB24_1
.LBB24_2:                               # %firqio_msetup_irq_l93_n620___LOOP___END
	movl	gvar_fin_mu_lu_n8__kterm, %eax
	movl	%eax, (%esp)
	movl	$.Lstrglobal_firqio_msetup_irq_l98_n642, 4(%esp)
	calll	Terminal$print
	movl	gvar_firqio_mu_lu_n4__idt, %eax
	movl	6(%eax), %eax
	movl	%eax, (%esp)
	movl	$irq_zerodivision_handler, 8(%esp)
	movl	$0, 4(%esp)
	calll	IRQHandlerTable$set
	movl	gvar_firqio_mu_lu_n4__idt, %eax
	movl	6(%eax), %eax
	movl	%eax, (%esp)
	movl	$irq_doublefault_handler, 8(%esp)
	movl	$8, 4(%esp)
	calll	IRQHandlerTable$set
	movl	gvar_firqio_mu_lu_n4__idt, %eax
	movl	6(%eax), %eax
	movl	%eax, (%esp)
	movl	$irq_protectionfault_handler, 8(%esp)
	movl	$13, 4(%esp)
	calll	IRQHandlerTable$set
	movl	gvar_firqio_mu_lu_n4__idt, %eax
	movl	6(%eax), %eax
	movl	%eax, (%esp)
	movl	$irq_pagefault_handler, 8(%esp)
	movl	$14, 4(%esp)
	calll	IRQHandlerTable$set
	movl	gvar_firqio_mu_lu_n4__idt, %eax
	movl	6(%eax), %eax
	movl	%eax, (%esp)
	movl	$irq_timer_handler, 8(%esp)
	movl	$32, 4(%esp)
	calll	IRQHandlerTable$set
	movl	gvar_firqio_mu_lu_n4__idt, %eax
	movl	6(%eax), %eax
	movl	%eax, (%esp)
	movl	$irq_keyboard_handler, 8(%esp)
	movl	$33, 4(%esp)
	calll	IRQHandlerTable$set
	calll	setup_kbd
	calll	setup_pit
	movl	gvar_fin_mu_lu_n8__kterm, %eax
	movl	%eax, (%esp)
	movl	$.Lstrglobal_firqio_msetup_irq_l112_n693, 4(%esp)
	calll	Terminal$print
	movl	gvar_firqio_mu_lu_n4__idt, %eax
	movl	%eax, (%esp)
	calll	__klidt
	movl	gvar_fin_mu_lu_n8__kterm, %eax
	movl	%eax, (%esp)
	movl	$.Lstrglobal_firqio_msetup_irq_l116_n702, 4(%esp)
	calll	Terminal$print
	calll	start_irqs
	movl	gvar_fin_mu_lu_n8__kterm, %eax
	movl	%eax, (%esp)
	movl	$.Lstrglobal_firqio_msetup_irq_l119_n709, 4(%esp)
	calll	Terminal$print
	movl	$96, (%esp)
	calll	read_port
	addl	$24, %esp
	popl	%esi
	retl
.Ltmp60:
	.size	setup_irq, .Ltmp60-setup_irq
	.cfi_endproc

	.globl	setup_kbd
	.align	16, 0x90
	.type	setup_kbd,@function
setup_kbd:                              # @setup_kbd
	.cfi_startproc
# BB#0:
	subl	$12, %esp
.Ltmp61:
	.cfi_def_cfa_offset 16
	movl	$17, 4(%esp)
	movl	$32, (%esp)
	calll	write_port
	movl	$17, 4(%esp)
	movl	$160, (%esp)
	calll	write_port
	movl	$32, 4(%esp)
	movl	$33, (%esp)
	calll	write_port
	movl	$40, 4(%esp)
	movl	$161, (%esp)
	calll	write_port
	movl	$0, 4(%esp)
	movl	$33, (%esp)
	calll	write_port
	movl	$0, 4(%esp)
	movl	$161, (%esp)
	calll	write_port
	movl	$1, 4(%esp)
	movl	$33, (%esp)
	calll	write_port
	movl	$1, 4(%esp)
	movl	$161, (%esp)
	calll	write_port
	movl	$255, 4(%esp)
	movl	$33, (%esp)
	calll	write_port
	movl	$255, 4(%esp)
	movl	$161, (%esp)
	calll	write_port
	addl	$12, %esp
	retl
.Ltmp62:
	.size	setup_kbd, .Ltmp62-setup_kbd
	.cfi_endproc

	.globl	setup_pit
	.align	16, 0x90
	.type	setup_pit,@function
setup_pit:                              # @setup_pit
	.cfi_startproc
# BB#0:
	subl	$12, %esp
.Ltmp63:
	.cfi_def_cfa_offset 16
	movl	$54, 4(%esp)
	movl	$67, (%esp)
	calll	write_port
	movl	$0, 4(%esp)
	movl	$64, (%esp)
	calll	write_port
	movl	$0, 4(%esp)
	movl	$64, (%esp)
	calll	write_port
	addl	$12, %esp
	retl
.Ltmp64:
	.size	setup_pit, .Ltmp64-setup_pit
	.cfi_endproc

	.globl	KeyboardEvent$$new
	.align	16, 0x90
	.type	KeyboardEvent$$new,@function
KeyboardEvent$$new:                     # @"KeyboardEvent$$new"
	.cfi_startproc
# BB#0:
	subl	$28, %esp
.Ltmp65:
	.cfi_def_cfa_offset 32
	movb	36(%esp), %al
	movl	32(%esp), %ecx
	movl	%ecx, 24(%esp)
	andb	$1, %al
	movb	%al, 23(%esp)
	movl	$5, (%esp)
	calll	malloc
	movl	%eax, 16(%esp)
	movl	24(%esp), %ecx
	movl	%ecx, (%eax)
	movl	16(%esp), %eax
	movb	23(%esp), %cl
	movb	%cl, 4(%eax)
	movl	16(%esp), %eax
	addl	$28, %esp
	retl
.Ltmp66:
	.size	KeyboardEvent$$new, .Ltmp66-KeyboardEvent$$new
	.cfi_endproc

	.globl	KeyboardState$$new
	.align	16, 0x90
	.type	KeyboardState$$new,@function
KeyboardState$$new:                     # @"KeyboardState$$new"
	.cfi_startproc
# BB#0:
	pushl	%esi
.Ltmp67:
	.cfi_def_cfa_offset 8
	subl	$24, %esp
.Ltmp68:
	.cfi_def_cfa_offset 32
.Ltmp69:
	.cfi_offset %esi, -8
	movl	$16, (%esp)
	calll	malloc
	movl	%eax, %esi
	movl	%esi, 20(%esp)
	movl	$128, (%esp)
	calll	malloc
	movl	%eax, (%esi)
	movl	20(%esp), %eax
	movl	(%eax), %eax
	movl	%eax, (%esp)
	movl	$0, 8(%esp)
	movl	$128, 4(%esp)
	calll	memset
	movl	20(%esp), %eax
	movl	$0, 4(%eax)
	movl	20(%esp), %eax
	addl	$24, %esp
	popl	%esi
	retl
.Ltmp70:
	.size	KeyboardState$$new, .Ltmp70-KeyboardState$$new
	.cfi_endproc

	.globl	KeyboardState$getkey
	.align	16, 0x90
	.type	KeyboardState$getkey,@function
KeyboardState$getkey:                   # @"KeyboardState$getkey"
	.cfi_startproc
# BB#0:
	subl	$28, %esp
.Ltmp71:
	.cfi_def_cfa_offset 32
	movl	36(%esp), %eax
	movl	32(%esp), %ecx
	movl	%ecx, 24(%esp)
	movl	%eax, 20(%esp)
	cmpl	$128, %eax
	jb	.LBB29_2
# BB#1:                                 # %if_firqio_mKeyboardState$getkey_l167_n809___SUCC
	movl	20(%esp), %eax
	movl	%eax, 4(%esp)
	movl	$.Lstrglobal_firqio_mKeyboardState$getkey_l168_n812, (%esp)
	calll	ikpanici
.LBB29_2:                               # %if_firqio_mKeyboardState$getkey_l167_n809___DONE
	movl	24(%esp), %eax
	movl	(%eax), %eax
	movl	20(%esp), %ecx
	cmpb	$0, (%eax,%ecx)
	setne	%al
	addl	$28, %esp
	retl
.Ltmp72:
	.size	KeyboardState$getkey, .Ltmp72-KeyboardState$getkey
	.cfi_endproc

	.globl	KeyboardState$setkey
	.align	16, 0x90
	.type	KeyboardState$setkey,@function
KeyboardState$setkey:                   # @"KeyboardState$setkey"
	.cfi_startproc
# BB#0:
	subl	$28, %esp
.Ltmp73:
	.cfi_def_cfa_offset 32
	movb	40(%esp), %al
	movl	36(%esp), %ecx
	movl	32(%esp), %edx
	movl	%edx, 24(%esp)
	movl	%ecx, 20(%esp)
	andb	$1, %al
	movb	%al, 19(%esp)
	cmpl	$128, 20(%esp)
	jb	.LBB30_2
# BB#1:                                 # %if_firqio_mKeyboardState$setkey_l173_n833___SUCC
	movl	20(%esp), %eax
	movl	%eax, 4(%esp)
	movl	$.Lstrglobal_firqio_mKeyboardState$setkey_l174_n836, (%esp)
	calll	ikpanici
.LBB30_2:                               # %if_firqio_mKeyboardState$setkey_l173_n833___DONE
	movl	24(%esp), %eax
	movl	(%eax), %eax
	movl	20(%esp), %ecx
	movb	19(%esp), %dl
	movb	%dl, (%eax,%ecx)
	movl	24(%esp), %eax
	cmpl	$0, 4(%eax)
	je	.LBB30_4
# BB#3:                                 # %if_firqio_mKeyboardState$setkey_l178_n855___SUCC
	movl	24(%esp), %eax
	movl	20(%esp), %ecx
	movzbl	19(%esp), %edx
	movl	%edx, 4(%esp)
	movl	%ecx, (%esp)
	calll	*4(%eax)
.LBB30_4:                               # %if_firqio_mKeyboardState$setkey_l178_n855___DONE
	addl	$28, %esp
	retl
.Ltmp74:
	.size	KeyboardState$setkey, .Ltmp74-KeyboardState$setkey
	.cfi_endproc

	.globl	KeyboardState$set_handler
	.align	16, 0x90
	.type	KeyboardState$set_handler,@function
KeyboardState$set_handler:              # @"KeyboardState$set_handler"
	.cfi_startproc
# BB#0:
	subl	$8, %esp
.Ltmp75:
	.cfi_def_cfa_offset 12
	movl	16(%esp), %eax
	movl	12(%esp), %ecx
	movl	%ecx, 4(%esp)
	movl	%eax, (%esp)
	movl	4(%esp), %ecx
	movl	%eax, 4(%ecx)
	addl	$8, %esp
	retl
.Ltmp76:
	.size	KeyboardState$set_handler, .Ltmp76-KeyboardState$set_handler
	.cfi_endproc

	.globl	start_irqs
	.align	16, 0x90
	.type	start_irqs,@function
start_irqs:                             # @start_irqs
	.cfi_startproc
# BB#0:
	subl	$12, %esp
.Ltmp77:
	.cfi_def_cfa_offset 16
	calll	KeyboardState$$new
	movl	%eax, gvar_firqio_mu_lu_n5__system_kbdstate
	movl	$0, gvar_firqio_mu_lu_n6__pic_ticks+4
	movl	$0, gvar_firqio_mu_lu_n6__pic_ticks
	movl	$252, 4(%esp)
	movl	$33, (%esp)
	calll	write_port
	addl	$12, %esp
	retl
.Ltmp78:
	.size	start_irqs, .Ltmp78-start_irqs
	.cfi_endproc

	.globl	kirq_callback
	.align	16, 0x90
	.type	kirq_callback,@function
kirq_callback:                          # @kirq_callback
	.cfi_startproc
# BB#0:
	subl	$44, %esp
.Ltmp79:
	.cfi_def_cfa_offset 48
	movl	56(%esp), %eax
	movl	52(%esp), %ecx
	movl	48(%esp), %edx
	movl	%edx, 40(%esp)
	movl	%ecx, 36(%esp)
	movl	%eax, 32(%esp)
	movl	gvar_firqio_mu_lu_n4__idt, %eax
	movl	6(%eax), %eax
	movl	36(%esp), %ecx
	movl	%ecx, 4(%esp)
	movl	%eax, (%esp)
	calll	IRQHandlerTable$get
	movl	%eax, 28(%esp)
	testl	%eax, %eax
	jne	.LBB33_2
# BB#1:                                 # %if_firqio_mkirq_callback_l201_n889___SUCC
	movl	32(%esp), %eax
	movl	36(%esp), %ecx
	movl	%ecx, 4(%esp)
	movl	%eax, (%esp)
	movl	$.Lstrglobal_firqio_mkirq_callback_l202_n897, 12(%esp)
	movl	$.Lstrglobal_firqio_mkirq_callback_l202_n894, 8(%esp)
	calll	kpanic
.LBB33_2:                               # %if_firqio_mkirq_callback_l201_n889___DONE
	movl	32(%esp), %eax
	movl	40(%esp), %ecx
	movl	%ecx, 8(%esp)
	movl	%eax, 4(%esp)
	movl	$0, (%esp)
	calll	*28(%esp)
	movl	$32, 4(%esp)
	movl	$32, (%esp)
	calll	write_port
	addl	$44, %esp
	retl
.Ltmp80:
	.size	kirq_callback, .Ltmp80-kirq_callback
	.cfi_endproc

	.globl	irq_keyboard_handler
	.align	16, 0x90
	.type	irq_keyboard_handler,@function
irq_keyboard_handler:                   # @irq_keyboard_handler
	.cfi_startproc
# BB#0:
	pushl	%ebp
.Ltmp81:
	.cfi_def_cfa_offset 8
.Ltmp82:
	.cfi_offset %ebp, -8
	movl	%esp, %ebp
.Ltmp83:
	.cfi_def_cfa_register %ebp
	pushl	%esi
	subl	$20, %esp
.Ltmp84:
	.cfi_offset %esi, -12
	movl	16(%ebp), %eax
	movl	12(%ebp), %ecx
	movl	8(%ebp), %edx
	movl	%edx, -8(%ebp)
	movl	%ecx, -12(%ebp)
	movl	%eax, -16(%ebp)
	subl	$16, %esp
	movl	$100, (%esp)
	calll	read_port
	addl	$16, %esp
	movl	%eax, -20(%ebp)
	testb	$1, %al
	jle	.LBB34_2
# BB#1:                                 # %if_firqio_mirq_keyboard_handler_l210_n923___SUCC
	movl	%esp, %esi
	leal	-16(%esi), %eax
	movl	%eax, %esp
	subl	$16, %esp
	movl	$96, (%esp)
	calll	read_port
	addl	$16, %esp
	movl	%eax, -16(%esi)
	movl	%esp, %eax
	leal	-16(%eax), %ecx
	movl	%ecx, %esp
	movl	-16(%esi), %ecx
	andl	$127, %ecx
	movl	%ecx, -16(%eax)
	movl	gvar_firqio_mu_lu_n5__system_kbdstate, %eax
	movl	-16(%esi), %edx
	testb	$-128, %dl
	sete	%dl
	subl	$16, %esp
	movl	%ecx, 4(%esp)
	movl	%eax, (%esp)
	movzbl	%dl, %eax
	movl	%eax, 8(%esp)
	calll	KeyboardState$setkey
	addl	$16, %esp
.LBB34_2:                               # %if_firqio_mirq_keyboard_handler_l210_n923___DONE
	leal	-4(%ebp), %esp
	popl	%esi
	popl	%ebp
	retl
.Ltmp85:
	.size	irq_keyboard_handler, .Ltmp85-irq_keyboard_handler
	.cfi_endproc

	.globl	irq_pagefault_handler
	.align	16, 0x90
	.type	irq_pagefault_handler,@function
irq_pagefault_handler:                  # @irq_pagefault_handler
	.cfi_startproc
# BB#0:
	subl	$28, %esp
.Ltmp86:
	.cfi_def_cfa_offset 32
	movl	40(%esp), %eax
	movl	36(%esp), %ecx
	movl	32(%esp), %edx
	movl	%edx, 24(%esp)
	movl	%ecx, 20(%esp)
	movl	%eax, 16(%esp)
	movl	20(%esp), %ecx
	movl	%eax, 4(%esp)
	movl	%ecx, (%esp)
	movl	$.Lstrglobal_firqio_mirq_pagefault_handler_l218_n950, 12(%esp)
	movl	$.Lstrglobal_firqio_mirq_pagefault_handler_l218_n947, 8(%esp)
	calll	kpanic
	addl	$28, %esp
	retl
.Ltmp87:
	.size	irq_pagefault_handler, .Ltmp87-irq_pagefault_handler
	.cfi_endproc

	.globl	irq_protectionfault_handler
	.align	16, 0x90
	.type	irq_protectionfault_handler,@function
irq_protectionfault_handler:            # @irq_protectionfault_handler
	.cfi_startproc
# BB#0:
	subl	$28, %esp
.Ltmp88:
	.cfi_def_cfa_offset 32
	movl	40(%esp), %eax
	movl	36(%esp), %ecx
	movl	32(%esp), %edx
	movl	%edx, 24(%esp)
	movl	%ecx, 20(%esp)
	movl	%eax, 16(%esp)
	movl	20(%esp), %ecx
	movl	%eax, 4(%esp)
	movl	%ecx, (%esp)
	movl	$.Lstrglobal_firqio_mirq_protectionfault_handler_l222_n963, 12(%esp)
	movl	$.Lstrglobal_firqio_mirq_protectionfault_handler_l222_n960, 8(%esp)
	calll	kpanic
	addl	$28, %esp
	retl
.Ltmp89:
	.size	irq_protectionfault_handler, .Ltmp89-irq_protectionfault_handler
	.cfi_endproc

	.globl	irq_doublefault_handler
	.align	16, 0x90
	.type	irq_doublefault_handler,@function
irq_doublefault_handler:                # @irq_doublefault_handler
	.cfi_startproc
# BB#0:
	subl	$28, %esp
.Ltmp90:
	.cfi_def_cfa_offset 32
	movl	40(%esp), %eax
	movl	36(%esp), %ecx
	movl	32(%esp), %edx
	movl	%edx, 24(%esp)
	movl	%ecx, 20(%esp)
	movl	%eax, 16(%esp)
	movl	20(%esp), %ecx
	movl	%eax, 4(%esp)
	movl	%ecx, (%esp)
	movl	$.Lstrglobal_firqio_mirq_doublefault_handler_l226_n976, 12(%esp)
	movl	$.Lstrglobal_firqio_mirq_doublefault_handler_l226_n973, 8(%esp)
	calll	kpanic
	addl	$28, %esp
	retl
.Ltmp91:
	.size	irq_doublefault_handler, .Ltmp91-irq_doublefault_handler
	.cfi_endproc

	.globl	irq_zerodivision_handler
	.align	16, 0x90
	.type	irq_zerodivision_handler,@function
irq_zerodivision_handler:               # @irq_zerodivision_handler
	.cfi_startproc
# BB#0:
	subl	$28, %esp
.Ltmp92:
	.cfi_def_cfa_offset 32
	movl	40(%esp), %eax
	movl	36(%esp), %ecx
	movl	32(%esp), %edx
	movl	%edx, 24(%esp)
	movl	%ecx, 20(%esp)
	movl	%eax, 16(%esp)
	movl	20(%esp), %ecx
	movl	%eax, 4(%esp)
	movl	%ecx, (%esp)
	movl	$.Lstrglobal_firqio_mirq_zerodivision_handler_l230_n989, 12(%esp)
	movl	$.Lstrglobal_firqio_mirq_zerodivision_handler_l230_n986, 8(%esp)
	calll	kpanic
	addl	$28, %esp
	retl
.Ltmp93:
	.size	irq_zerodivision_handler, .Ltmp93-irq_zerodivision_handler
	.cfi_endproc

	.globl	irq_timer_handler
	.align	16, 0x90
	.type	irq_timer_handler,@function
irq_timer_handler:                      # @irq_timer_handler
	.cfi_startproc
# BB#0:
	subl	$12, %esp
.Ltmp94:
	.cfi_def_cfa_offset 16
	movl	24(%esp), %eax
	movl	20(%esp), %ecx
	movl	16(%esp), %edx
	movl	%edx, 8(%esp)
	movl	%ecx, 4(%esp)
	movl	%eax, (%esp)
	movl	gvar_firqio_mu_lu_n6__pic_ticks+4, %eax
	movl	gvar_firqio_mu_lu_n6__pic_ticks, %ecx
	addl	$1, %ecx
	adcl	$0, %eax
	movl	%ecx, gvar_firqio_mu_lu_n6__pic_ticks
	movl	%eax, gvar_firqio_mu_lu_n6__pic_ticks+4
	addl	$12, %esp
	retl
.Ltmp95:
	.size	irq_timer_handler, .Ltmp95-irq_timer_handler
	.cfi_endproc

	.globl	kswritebyte
	.align	16, 0x90
	.type	kswritebyte,@function
kswritebyte:                            # @kswritebyte
	.cfi_startproc
# BB#0:
	subl	$12, %esp
.Ltmp96:
	.cfi_def_cfa_offset 16
	movb	16(%esp), %al
	movb	%al, 11(%esp)
	movl	gvar_fserialdbg_mu_lu_n7__serial_base, %eax
	movzbl	11(%esp), %ecx
	movl	%ecx, 4(%esp)
	movl	%eax, (%esp)
	calll	write_port
	addl	$12, %esp
	retl
.Ltmp97:
	.size	kswritebyte, .Ltmp97-kswritebyte
	.cfi_endproc

	.globl	kswritecstr
	.align	16, 0x90
	.type	kswritecstr,@function
kswritecstr:                            # @kswritecstr
	.cfi_startproc
# BB#0:
	pushl	%esi
.Ltmp98:
	.cfi_def_cfa_offset 8
	subl	$24, %esp
.Ltmp99:
	.cfi_def_cfa_offset 32
.Ltmp100:
	.cfi_offset %esi, -8
	movl	32(%esp), %eax
	movl	%eax, 20(%esp)
	movl	$0, 16(%esp)
	movl	20(%esp), %eax
	movl	%eax, (%esp)
	calll	cstr$len
	testl	%eax, %eax
	jle	.LBB41_2
	.align	16, 0x90
.LBB41_1:                               # %fserialdbg_mkswritecstr_l10_n1008___LOOP___HEAD
                                        # =>This Inner Loop Header: Depth=1
	movl	20(%esp), %eax
	movl	16(%esp), %ecx
	movzbl	(%eax,%ecx), %eax
	movl	%eax, (%esp)
	calll	kswritebyte
	movl	16(%esp), %esi
	incl	%esi
	movl	%esi, 16(%esp)
	movl	20(%esp), %eax
	movl	%eax, (%esp)
	calll	cstr$len
	cmpl	%eax, %esi
	jl	.LBB41_1
.LBB41_2:                               # %fserialdbg_mkswritecstr_l10_n1008___LOOP___END
	addl	$24, %esp
	popl	%esi
	retl
.Ltmp101:
	.size	kswritecstr, .Ltmp101-kswritecstr
	.cfi_endproc

	.globl	init_serial
	.align	16, 0x90
	.type	init_serial,@function
init_serial:                            # @init_serial
	.cfi_startproc
# BB#0:
	subl	$12, %esp
.Ltmp102:
	.cfi_def_cfa_offset 16
	movl	$1016, gvar_fserialdbg_mu_lu_n7__serial_base # imm = 0x3F8
	movl	$0, 4(%esp)
	movl	$1017, (%esp)           # imm = 0x3F9
	calll	write_port
	movl	gvar_fserialdbg_mu_lu_n7__serial_base, %eax
	addl	$3, %eax
	movl	%eax, (%esp)
	movl	$128, 4(%esp)
	calll	write_port
	movl	gvar_fserialdbg_mu_lu_n7__serial_base, %eax
	movl	%eax, (%esp)
	movl	$3, 4(%esp)
	calll	write_port
	movl	gvar_fserialdbg_mu_lu_n7__serial_base, %eax
	incl	%eax
	movl	%eax, (%esp)
	movl	$0, 4(%esp)
	calll	write_port
	movl	gvar_fserialdbg_mu_lu_n7__serial_base, %eax
	addl	$3, %eax
	movl	%eax, (%esp)
	movl	$3, 4(%esp)
	calll	write_port
	movl	gvar_fserialdbg_mu_lu_n7__serial_base, %eax
	addl	$2, %eax
	movl	%eax, (%esp)
	movl	$199, 4(%esp)
	calll	write_port
	movl	$.Lstrglobal_fserialdbg_minit_serial_l26_n1068, (%esp)
	calll	kswritecstr
	addl	$12, %esp
	retl
.Ltmp103:
	.size	init_serial, .Ltmp103-init_serial
	.cfi_endproc

	.globl	Terminal$$new
	.align	16, 0x90
	.type	Terminal$$new,@function
Terminal$$new:                          # @"Terminal$$new"
	.cfi_startproc
# BB#0:
	pushl	%esi
.Ltmp104:
	.cfi_def_cfa_offset 8
	subl	$24, %esp
.Ltmp105:
	.cfi_def_cfa_offset 32
.Ltmp106:
	.cfi_offset %esi, -8
	movl	44(%esp), %eax
	movl	40(%esp), %ecx
	movl	36(%esp), %edx
	movl	32(%esp), %esi
	movl	%esi, 20(%esp)
	movl	%edx, 16(%esp)
	movl	%ecx, 12(%esp)
	movl	%eax, 8(%esp)
	movl	$34, (%esp)
	calll	malloc
	movl	%eax, 4(%esp)
	movl	20(%esp), %ecx
	movl	%ecx, (%eax)
	movl	4(%esp), %eax
	movl	16(%esp), %ecx
	movl	%ecx, 4(%eax)
	movl	4(%esp), %eax
	movl	12(%esp), %ecx
	movl	%ecx, 8(%eax)
	movl	4(%esp), %eax
	movl	$0, 12(%eax)
	movl	4(%esp), %eax
	movl	$0, 16(%eax)
	movl	4(%esp), %eax
	movb	$15, 20(%eax)
	movl	4(%esp), %eax
	movb	$1, 21(%eax)
	movl	4(%esp), %eax
	movl	8(%esp), %ecx
	movl	%ecx, 24(%eax)
	movl	4(%esp), %eax
	addl	$24, %esp
	popl	%esi
	retl
.Ltmp107:
	.size	Terminal$$new, .Ltmp107-Terminal$$new
	.cfi_endproc

	.globl	Terminal$setchar
	.align	16, 0x90
	.type	Terminal$setchar,@function
Terminal$setchar:                       # @"Terminal$setchar"
	.cfi_startproc
# BB#0:
	pushl	%esi
.Ltmp108:
	.cfi_def_cfa_offset 8
	subl	$24, %esp
.Ltmp109:
	.cfi_def_cfa_offset 32
.Ltmp110:
	.cfi_offset %esi, -8
	movb	44(%esp), %al
	movl	40(%esp), %ecx
	movl	36(%esp), %edx
	movl	32(%esp), %esi
	movl	%esi, 20(%esp)
	movl	%edx, 16(%esp)
	movl	%ecx, 12(%esp)
	movb	%al, 11(%esp)
	movl	20(%esp), %ecx
	movl	(%ecx), %edx
	movl	12(%esp), %esi
	imull	4(%ecx), %esi
	movl	16(%esp), %ecx
	addl	%ecx, %ecx
	leal	(%ecx,%esi,2), %ecx
	movb	%al, (%edx,%ecx)
	movl	20(%esp), %eax
	movl	(%eax), %ecx
	movl	12(%esp), %edx
	imull	4(%eax), %edx
	addl	%edx, %edx
	movl	16(%esp), %esi
	leal	(%edx,%esi,2), %edx
	movb	20(%eax), %al
	movb	%al, 1(%ecx,%edx)
	movl	20(%esp), %eax
	calll	*24(%eax)
	addl	$24, %esp
	popl	%esi
	retl
.Ltmp111:
	.size	Terminal$setchar, .Ltmp111-Terminal$setchar
	.cfi_endproc

	.globl	Terminal$setattrs
	.align	16, 0x90
	.type	Terminal$setattrs,@function
Terminal$setattrs:                      # @"Terminal$setattrs"
	.cfi_startproc
# BB#0:
	subl	$8, %esp
.Ltmp112:
	.cfi_def_cfa_offset 12
	movl	16(%esp), %eax
	movl	12(%esp), %ecx
	movl	%ecx, 4(%esp)
	movl	%eax, (%esp)
	movl	4(%esp), %eax
	movb	(%esp), %cl
	movb	%cl, 20(%eax)
	addl	$8, %esp
	retl
.Ltmp113:
	.size	Terminal$setattrs, .Ltmp113-Terminal$setattrs
	.cfi_endproc

	.globl	Terminal$putchar
	.align	16, 0x90
	.type	Terminal$putchar,@function
Terminal$putchar:                       # @"Terminal$putchar"
	.cfi_startproc
# BB#0:
	pushl	%esi
.Ltmp114:
	.cfi_def_cfa_offset 8
	subl	$24, %esp
.Ltmp115:
	.cfi_def_cfa_offset 32
.Ltmp116:
	.cfi_offset %esi, -8
	movb	36(%esp), %al
	movl	32(%esp), %ecx
	movl	%ecx, 20(%esp)
	movb	%al, 19(%esp)
	movl	20(%esp), %eax
	movzbl	21(%eax), %eax
	cmpl	$1, %eax
	jne	.LBB46_2
# BB#1:                                 # %if_fterm_mTerminal$putchar_l38_n1167___SUCC
	movzbl	19(%esp), %eax
	movl	%eax, (%esp)
	calll	kswritebyte
.LBB46_2:                               # %if_fterm_mTerminal$putchar_l38_n1167___DONE
	movl	20(%esp), %eax
	movl	12(%eax), %ecx
	movl	16(%eax), %edx
	movzbl	19(%esp), %esi
	movl	%esi, 12(%esp)
	movl	%edx, 8(%esp)
	movl	%ecx, 4(%esp)
	movl	%eax, (%esp)
	calll	Terminal$setchar
	movl	20(%esp), %eax
	incl	12(%eax)
	movl	20(%esp), %eax
	movl	12(%eax), %ecx
	cmpl	4(%eax), %ecx
	jl	.LBB46_4
# BB#3:                                 # %if_fterm_mTerminal$putchar_l44_n1194___SUCC
	movl	20(%esp), %eax
	movl	$0, 12(%eax)
	movl	20(%esp), %eax
	incl	16(%eax)
.LBB46_4:                               # %if_fterm_mTerminal$putchar_l44_n1194___DONE
	movl	20(%esp), %eax
	movl	%eax, (%esp)
	calll	Terminal$scroll
	addl	$24, %esp
	popl	%esi
	retl
.Ltmp117:
	.size	Terminal$putchar, .Ltmp117-Terminal$putchar
	.cfi_endproc

	.globl	Terminal$print
	.align	16, 0x90
	.type	Terminal$print,@function
Terminal$print:                         # @"Terminal$print"
	.cfi_startproc
# BB#0:
	pushl	%edi
.Ltmp118:
	.cfi_def_cfa_offset 8
	pushl	%esi
.Ltmp119:
	.cfi_def_cfa_offset 12
	subl	$36, %esp
.Ltmp120:
	.cfi_def_cfa_offset 48
.Ltmp121:
	.cfi_offset %esi, -12
.Ltmp122:
	.cfi_offset %edi, -8
	movl	52(%esp), %eax
	movl	48(%esp), %ecx
	movl	%ecx, 32(%esp)
	movl	%eax, 28(%esp)
	movl	$0, 24(%esp)
	movl	32(%esp), %eax
	movzbl	21(%eax), %eax
	cmpl	$1, %eax
	jne	.LBB47_2
# BB#1:                                 # %if_fterm_mTerminal$print_l54_n1214___SUCC
	movl	28(%esp), %eax
	movl	%eax, (%esp)
	calll	kswritecstr
.LBB47_2:                               # %if_fterm_mTerminal$print_l54_n1214___DONE
	movl	28(%esp), %eax
	movl	24(%esp), %ecx
	cmpb	$0, (%eax,%ecx)
	je	.LBB47_9
	.align	16, 0x90
.LBB47_3:                               # %fterm_mTerminal$print_l58_n1218___LOOP___HEAD
                                        # =>This Inner Loop Header: Depth=1
	movl	28(%esp), %eax
	movl	24(%esp), %ecx
	movzbl	(%eax,%ecx), %eax
	cmpl	$10, %eax
	je	.LBB47_5
# BB#4:                                 # %if_fterm_mTerminal$print_l59_n1237___SUCC
                                        #   in Loop: Header=BB47_3 Depth=1
	movl	32(%esp), %eax
	movl	12(%eax), %ecx
	movl	16(%eax), %edx
	movl	28(%esp), %esi
	movl	24(%esp), %edi
	movzbl	(%esi,%edi), %esi
	movl	%esi, 12(%esp)
	movl	%edx, 8(%esp)
	movl	%ecx, 4(%esp)
	movl	%eax, (%esp)
	calll	Terminal$setchar
	movl	32(%esp), %eax
	incl	12(%eax)
	jmp	.LBB47_6
	.align	16, 0x90
.LBB47_5:                               # %if_fterm_mTerminal$print_l59_n1237___FAIL
                                        #   in Loop: Header=BB47_3 Depth=1
	movl	32(%esp), %eax
	movl	$0, 12(%eax)
	movl	32(%esp), %eax
	incl	16(%eax)
.LBB47_6:                               # %if_fterm_mTerminal$print_l59_n1237___DONE
                                        #   in Loop: Header=BB47_3 Depth=1
	movl	32(%esp), %eax
	movl	12(%eax), %ecx
	cmpl	4(%eax), %ecx
	jl	.LBB47_8
# BB#7:                                 # %if_fterm_mTerminal$print_l66_n1276___SUCC
                                        #   in Loop: Header=BB47_3 Depth=1
	movl	32(%esp), %eax
	movl	$0, 12(%eax)
	movl	32(%esp), %eax
	incl	16(%eax)
.LBB47_8:                               # %if_fterm_mTerminal$print_l66_n1276___DONE
                                        #   in Loop: Header=BB47_3 Depth=1
	movl	24(%esp), %eax
	leal	1(%eax), %ecx
	movl	%ecx, 24(%esp)
	movl	28(%esp), %ecx
	cmpb	$0, 1(%ecx,%eax)
	jne	.LBB47_3
.LBB47_9:                               # %fterm_mTerminal$print_l58_n1218___LOOP___END
	movl	32(%esp), %eax
	movl	%eax, (%esp)
	calll	Terminal$scroll
	addl	$36, %esp
	popl	%esi
	popl	%edi
	retl
.Ltmp123:
	.size	Terminal$print, .Ltmp123-Terminal$print
	.cfi_endproc

	.globl	Terminal$printl
	.align	16, 0x90
	.type	Terminal$printl,@function
Terminal$printl:                        # @"Terminal$printl"
	.cfi_startproc
# BB#0:
	subl	$28, %esp
.Ltmp124:
	.cfi_def_cfa_offset 32
	movl	36(%esp), %eax
	movl	32(%esp), %ecx
	movl	%ecx, 24(%esp)
	movl	%eax, 20(%esp)
	movl	24(%esp), %ecx
	movl	%eax, 4(%esp)
	movl	%ecx, (%esp)
	calll	Terminal$print
	movl	24(%esp), %eax
	movl	%eax, (%esp)
	movl	$.Lstrglobal_fterm_mTerminal$printl_l77_n1308, 4(%esp)
	calll	Terminal$print
	movl	24(%esp), %eax
	movl	%eax, (%esp)
	calll	Terminal$scroll
	addl	$28, %esp
	retl
.Ltmp125:
	.size	Terminal$printl, .Ltmp125-Terminal$printl
	.cfi_endproc

	.globl	Terminal$scroll
	.align	16, 0x90
	.type	Terminal$scroll,@function
Terminal$scroll:                        # @"Terminal$scroll"
	.cfi_startproc
# BB#0:
	pushl	%ebp
.Ltmp126:
	.cfi_def_cfa_offset 8
.Ltmp127:
	.cfi_offset %ebp, -8
	movl	%esp, %ebp
.Ltmp128:
	.cfi_def_cfa_register %ebp
	pushl	%edi
	pushl	%esi
	subl	$16, %esp
.Ltmp129:
	.cfi_offset %esi, -16
.Ltmp130:
	.cfi_offset %edi, -12
	movl	8(%ebp), %eax
	movl	%eax, -12(%ebp)
	jmp	.LBB49_1
	.align	16, 0x90
.LBB49_4:                               # %fterm_mTerminal$scroll_l84_n1324___LOOP___END
                                        #   in Loop: Header=BB49_1 Depth=1
	movl	-12(%ebp), %eax
	movl	(%eax), %ecx
	movl	4(%eax), %edx
	imull	8(%eax), %edx
	addl	%edx, %edx
	subl	$16, %esp
	movl	%edx, 4(%esp)
	movl	%ecx, (%esp)
	calll	ptr$offset
	addl	$16, %esp
	movl	-12(%ebp), %ecx
	movl	4(%ecx), %ecx
	addl	%ecx, %ecx
	subl	$16, %esp
	movl	%ecx, 4(%esp)
	movl	%eax, (%esp)
	movl	$0, 8(%esp)
	calll	memset
	addl	$16, %esp
	movl	-12(%ebp), %eax
	decl	16(%eax)
	movl	-12(%ebp), %eax
.LBB49_1:                               # =>This Loop Header: Depth=1
                                        #     Child Loop BB49_3 Depth 2
	movl	16(%eax), %ecx
	cmpl	8(%eax), %ecx
	jl	.LBB49_5
# BB#2:                                 # %fterm_mTerminal$scroll_l82_n1314___LOOP___HEAD
                                        #   in Loop: Header=BB49_1 Depth=1
	movl	%esp, %eax
	leal	-16(%eax), %edi
	movl	%edi, %esp
	movl	$0, -16(%eax)
	movl	-12(%ebp), %eax
	cmpl	$0, 8(%eax)
	jle	.LBB49_4
	.align	16, 0x90
.LBB49_3:                               # %fterm_mTerminal$scroll_l84_n1324___LOOP___HEAD
                                        #   Parent Loop BB49_1 Depth=1
                                        # =>  This Inner Loop Header: Depth=2
	movl	-12(%ebp), %eax
	movl	(%eax), %ecx
	movl	(%edi), %edx
	incl	%edx
	imull	4(%eax), %edx
	addl	%edx, %edx
	subl	$16, %esp
	movl	%edx, 4(%esp)
	movl	%ecx, (%esp)
	calll	ptr$offset
	addl	$16, %esp
	movl	%eax, %esi
	movl	-12(%ebp), %eax
	movl	(%eax), %ecx
	movl	(%edi), %edx
	imull	4(%eax), %edx
	addl	%edx, %edx
	subl	$16, %esp
	movl	%edx, 4(%esp)
	movl	%ecx, (%esp)
	calll	ptr$offset
	addl	$16, %esp
	movl	-12(%ebp), %ecx
	movl	4(%ecx), %ecx
	addl	%ecx, %ecx
	subl	$16, %esp
	movl	%ecx, 8(%esp)
	movl	%eax, 4(%esp)
	movl	%esi, (%esp)
	calll	memcpy
	addl	$16, %esp
	movl	(%edi), %eax
	incl	%eax
	movl	%eax, (%edi)
	movl	-12(%ebp), %ecx
	cmpl	8(%ecx), %eax
	jl	.LBB49_3
	jmp	.LBB49_4
.LBB49_5:                               # %fterm_mTerminal$scroll_l82_n1314___LOOP___END
	movl	-12(%ebp), %eax
	calll	*24(%eax)
	leal	-8(%ebp), %esp
	popl	%esi
	popl	%edi
	popl	%ebp
	retl
.Ltmp131:
	.size	Terminal$scroll, .Ltmp131-Terminal$scroll
	.cfi_endproc

	.globl	Terminal$movecursor
	.align	16, 0x90
	.type	Terminal$movecursor,@function
Terminal$movecursor:                    # @"Terminal$movecursor"
	.cfi_startproc
# BB#0:
	subl	$28, %esp
.Ltmp132:
	.cfi_def_cfa_offset 32
	movl	40(%esp), %eax
	movl	36(%esp), %ecx
	movl	32(%esp), %edx
	movl	%edx, 24(%esp)
	movl	%ecx, 20(%esp)
	movl	%eax, 16(%esp)
	movl	24(%esp), %eax
	movl	20(%esp), %ecx
	addl	%ecx, 12(%eax)
	movl	24(%esp), %eax
	cmpl	$0, 12(%eax)
	jns	.LBB50_2
# BB#1:                                 # %if_fterm_mTerminal$movecursor_l96_n1424___SUCC
	movl	24(%esp), %eax
	movl	$0, 12(%eax)
	jmp	.LBB50_4
.LBB50_2:                               # %if_fterm_mTerminal$movecursor_l96_n1424___FAIL
	movl	24(%esp), %eax
	movl	12(%eax), %ecx
	cmpl	4(%eax), %ecx
	jle	.LBB50_4
# BB#3:                                 # %if_fterm_mTerminal$movecursor_l96_n1435___SUCC
	movl	24(%esp), %eax
	movl	4(%eax), %ecx
	subl	%ecx, 12(%eax)
	movl	24(%esp), %eax
	incl	16(%eax)
.LBB50_4:                               # %if_fterm_mTerminal$movecursor_l96_n1424___DONE
	movl	24(%esp), %eax
	movl	16(%esp), %ecx
	addl	%ecx, 16(%eax)
	movl	24(%esp), %eax
	cmpl	$0, 16(%eax)
	jns	.LBB50_6
# BB#5:                                 # %if_fterm_mTerminal$movecursor_l104_n1464___SUCC
	movl	24(%esp), %eax
	movl	$0, 16(%eax)
.LBB50_6:                               # %if_fterm_mTerminal$movecursor_l104_n1464___DONE
	movl	24(%esp), %eax
	movl	%eax, (%esp)
	calll	Terminal$scroll
	addl	$28, %esp
	retl
.Ltmp133:
	.size	Terminal$movecursor, .Ltmp133-Terminal$movecursor
	.cfi_endproc

	.globl	Terminal$printa
	.align	16, 0x90
	.type	Terminal$printa,@function
Terminal$printa:                        # @"Terminal$printa"
	.cfi_startproc
# BB#0:
	subl	$28, %esp
.Ltmp134:
	.cfi_def_cfa_offset 32
	movl	40(%esp), %eax
	movl	36(%esp), %ecx
	movl	32(%esp), %edx
	movl	%edx, 24(%esp)
	movl	%ecx, 20(%esp)
	movl	%eax, 16(%esp)
	movl	24(%esp), %eax
	movb	20(%eax), %al
	movb	%al, 15(%esp)
	movl	24(%esp), %eax
	movb	20(%esp), %cl
	movb	%cl, 20(%eax)
	movl	24(%esp), %eax
	movl	16(%esp), %ecx
	movl	%ecx, 4(%esp)
	movl	%eax, (%esp)
	calll	Terminal$print
	movl	24(%esp), %eax
	movb	15(%esp), %cl
	movb	%cl, 20(%eax)
	addl	$28, %esp
	retl
.Ltmp135:
	.size	Terminal$printa, .Ltmp135-Terminal$printa
	.cfi_endproc

	.globl	Terminal$printlong
	.align	16, 0x90
	.type	Terminal$printlong,@function
Terminal$printlong:                     # @"Terminal$printlong"
	.cfi_startproc
# BB#0:
	pushl	%ebp
.Ltmp136:
	.cfi_def_cfa_offset 8
.Ltmp137:
	.cfi_offset %ebp, -8
	movl	%esp, %ebp
.Ltmp138:
	.cfi_def_cfa_register %ebp
	pushl	%ebx
	pushl	%edi
	pushl	%esi
	subl	$28, %esp
.Ltmp139:
	.cfi_offset %esi, -20
.Ltmp140:
	.cfi_offset %edi, -16
.Ltmp141:
	.cfi_offset %ebx, -12
	movl	12(%ebp), %eax
	movl	16(%ebp), %ecx
	movl	8(%ebp), %edx
	movl	%edx, -16(%ebp)
	movl	%ecx, -20(%ebp)
	movl	%eax, -24(%ebp)
	orl	%ecx, %eax
	jne	.LBB52_3
# BB#1:                                 # %if_fterm_mTerminal$printlong_l118_n1493___SUCC
	movl	-16(%ebp), %eax
	subl	$16, %esp
	movl	%eax, (%esp)
	movl	$.Lstrglobal_fterm_mTerminal$printlong_l119_n1496, 4(%esp)
	calll	Terminal$print
	jmp	.LBB52_2
.LBB52_3:                               # %if_fterm_mTerminal$printlong_l118_n1493___DONE
	cmpl	$0, -20(%ebp)
	jns	.LBB52_5
# BB#4:                                 # %if_fterm_mTerminal$printlong_l123_n1503___SUCC
	movl	-16(%ebp), %eax
	subl	$16, %esp
	movl	%eax, (%esp)
	movl	$.Lstrglobal_fterm_mTerminal$printlong_l124_n1506, 4(%esp)
	calll	Terminal$print
	addl	$16, %esp
	xorl	%eax, %eax
	xorl	%ecx, %ecx
	subl	-24(%ebp), %ecx
	sbbl	-20(%ebp), %eax
	movl	%eax, -20(%ebp)
	movl	%ecx, -24(%ebp)
.LBB52_5:                               # %if_fterm_mTerminal$printlong_l123_n1503___DONE
	movl	%esp, %eax
	addl	$-16, %eax
	movl	%eax, -32(%ebp)         # 4-byte Spill
	movl	%eax, %esp
                                        # kill: EAX<def> ESP<kill>
	leal	-16(%eax), %ecx
	movl	%ecx, -36(%ebp)         # 4-byte Spill
	movl	%ecx, %esp
	movl	$9, -16(%eax)
	movl	%esp, %esi
	leal	-16(%esi), %edi
	movl	%edi, %esp
	subl	$16, %esp
	movl	$11, (%esp)
	calll	malloc
	addl	$16, %esp
	movl	%eax, -16(%esi)
	movl	%esp, %ecx
	leal	-16(%ecx), %eax
	movl	%eax, -28(%ebp)         # 4-byte Spill
	movl	%eax, %esp
	movl	$.Lstrglobal_fterm_mTerminal$printlong_l131_n1519, -16(%ecx)
	movl	-16(%esi), %ecx
	movb	$0, 10(%ecx)
	movl	%esp, %edx
	leal	-16(%edx), %ecx
	movl	%ecx, %esp
	movl	$0, -16(%edx)
	xorl	%edx, %edx
	testb	%dl, %dl
	jne	.LBB52_7
	.align	16, 0x90
.LBB52_6:                               # %fterm_mTerminal$printlong_l134_n1531___LOOP___HEAD
                                        # =>This Inner Loop Header: Depth=1
	movl	(%edi), %edx
	movl	(%ecx), %ebx
	movl	%edi, %esi
	movl	(%eax), %edi
	movb	(%edi), %al
	movl	%esi, %edi
	movb	%al, (%edx,%ebx)
	movl	(%ecx), %eax
	incl	%eax
	movl	%eax, (%ecx)
	cmpl	$10, %eax
	movl	-28(%ebp), %eax         # 4-byte Reload
	jl	.LBB52_6
.LBB52_7:                               # %fterm_mTerminal$printlong_l134_n1531___LOOP___END
	cmpl	$0, -24(%ebp)
	sete	%al
	cmpl	$0, -20(%ebp)
	sets	%cl
	je	.LBB52_9
# BB#8:                                 # %fterm_mTerminal$printlong_l134_n1531___LOOP___END
	movb	%cl, %al
.LBB52_9:                               # %fterm_mTerminal$printlong_l134_n1531___LOOP___END
	testb	%al, %al
	movl	-32(%ebp), %esi         # 4-byte Reload
	movl	-36(%ebp), %ebx         # 4-byte Reload
	jne	.LBB52_13
	.align	16, 0x90
.LBB52_10:                              # %fterm_mTerminal$printlong_l138_n1552___LOOP___HEAD
                                        # =>This Inner Loop Header: Depth=1
	movl	-24(%ebp), %eax
	movl	-20(%ebp), %ecx
	subl	$16, %esp
	movl	%ecx, 4(%esp)
	movl	%eax, (%esp)
	movl	$0, 12(%esp)
	movl	$10, 8(%esp)
	calll	__moddi3
	addl	$16, %esp
	movl	%edx, 4(%esi)
	movl	%eax, (%esi)
	movl	-24(%ebp), %eax
	movl	-20(%ebp), %ecx
	subl	$16, %esp
	movl	%ecx, 4(%esp)
	movl	%eax, (%esp)
	movl	$0, 12(%esp)
	movl	$10, 8(%esp)
	calll	__divdi3
	addl	$16, %esp
	movl	%edx, -20(%ebp)
	movl	%eax, -24(%ebp)
	movl	(%edi), %eax
	movl	(%ebx), %ecx
	movl	(%esi), %edx
	addl	$48, %edx
	movb	%dl, (%eax,%ecx)
	decl	(%ebx)
	cmpl	$0, -24(%ebp)
	setne	%al
	cmpl	$0, -20(%ebp)
	setg	%cl
	je	.LBB52_12
# BB#11:                                # %fterm_mTerminal$printlong_l138_n1552___LOOP___HEAD
                                        #   in Loop: Header=BB52_10 Depth=1
	movb	%cl, %al
.LBB52_12:                              # %fterm_mTerminal$printlong_l138_n1552___LOOP___HEAD
                                        #   in Loop: Header=BB52_10 Depth=1
	testb	%al, %al
	jne	.LBB52_10
.LBB52_13:                              # %fterm_mTerminal$printlong_l138_n1552___LOOP___END
	movl	-16(%ebp), %eax
	movl	(%edi), %ecx
	movl	(%ebx), %edx
	leal	1(%edx,%ecx), %ecx
	subl	$16, %esp
	movl	%ecx, 4(%esp)
	movl	%eax, (%esp)
	calll	Terminal$print
	addl	$16, %esp
	movl	(%edi), %eax
	subl	$16, %esp
	movl	%eax, (%esp)
	calll	free
.LBB52_2:                               # %if_fterm_mTerminal$printlong_l118_n1493___SUCC
	leal	-12(%ebp), %esp
	popl	%esi
	popl	%edi
	popl	%ebx
	popl	%ebp
	retl
.Ltmp142:
	.size	Terminal$printlong, .Ltmp142-Terminal$printlong
	.cfi_endproc

	.globl	Terminal$dumpbin
	.align	16, 0x90
	.type	Terminal$dumpbin,@function
Terminal$dumpbin:                       # @"Terminal$dumpbin"
	.cfi_startproc
# BB#0:
	subl	$28, %esp
.Ltmp143:
	.cfi_def_cfa_offset 32
	movl	36(%esp), %eax
	movl	32(%esp), %ecx
	movl	%ecx, 24(%esp)
	movl	%eax, 20(%esp)
	movl	24(%esp), %eax
	movl	%eax, (%esp)
	movl	$.Lstrglobal_fterm_mTerminal$dumpbin_l150_n1598, 4(%esp)
	calll	Terminal$print
	movl	$32, 16(%esp)
	xorl	%eax, %eax
	testb	%al, %al
	jne	.LBB53_5
	.align	16, 0x90
.LBB53_1:                               # %fterm_mTerminal$dumpbin_l152_n1605___LOOP___HEAD
                                        # =>This Inner Loop Header: Depth=1
	decl	16(%esp)
	movl	20(%esp), %eax
	movl	16(%esp), %ecx
	btl	%ecx, %eax
	jae	.LBB53_3
# BB#2:                                 # %if_fterm_mTerminal$dumpbin_l154_n1619___SUCC
                                        #   in Loop: Header=BB53_1 Depth=1
	movl	24(%esp), %eax
	movl	%eax, (%esp)
	movl	$.Lstrglobal_fterm_mTerminal$dumpbin_l155_n1622, 4(%esp)
	jmp	.LBB53_4
	.align	16, 0x90
.LBB53_3:                               # %if_fterm_mTerminal$dumpbin_l154_n1619___FAIL
                                        #   in Loop: Header=BB53_1 Depth=1
	movl	24(%esp), %eax
	movl	%eax, (%esp)
	movl	$.Lstrglobal_fterm_mTerminal$dumpbin_l157_n1627, 4(%esp)
.LBB53_4:                               # %if_fterm_mTerminal$dumpbin_l154_n1619___DONE
                                        #   in Loop: Header=BB53_1 Depth=1
	calll	Terminal$print
	cmpl	$0, 16(%esp)
	jg	.LBB53_1
.LBB53_5:                               # %fterm_mTerminal$dumpbin_l152_n1605___LOOP___END
	addl	$28, %esp
	retl
.Ltmp144:
	.size	Terminal$dumpbin, .Ltmp144-Terminal$dumpbin
	.cfi_endproc

	.globl	Terminal$dumphex
	.align	16, 0x90
	.type	Terminal$dumphex,@function
Terminal$dumphex:                       # @"Terminal$dumphex"
	.cfi_startproc
# BB#0:
	pushl	%ebp
.Ltmp145:
	.cfi_def_cfa_offset 8
.Ltmp146:
	.cfi_offset %ebp, -8
	movl	%esp, %ebp
.Ltmp147:
	.cfi_def_cfa_register %ebp
	pushl	%esi
	subl	$20, %esp
.Ltmp148:
	.cfi_offset %esi, -12
	movl	16(%ebp), %eax
	movl	12(%ebp), %ecx
	movl	8(%ebp), %edx
	movl	%edx, -8(%ebp)
	movl	%ecx, -12(%ebp)
	movl	%eax, -16(%ebp)
	movl	-8(%ebp), %eax
	subl	$16, %esp
	movl	%eax, (%esp)
	movl	$.Lstrglobal_fterm_mTerminal$dumphex_l163_n1638, 4(%esp)
	calll	Terminal$print
	addl	$16, %esp
	movl	-16(%ebp), %eax
	movl	%eax, -20(%ebp)
	testl	%eax, %eax
	jle	.LBB54_5
	.align	16, 0x90
.LBB54_1:                               # %fterm_mTerminal$dumphex_l165_n1643___LOOP___HEAD
                                        # =>This Inner Loop Header: Depth=1
	decl	-20(%ebp)
	movl	%esp, %edx
	leal	-16(%edx), %eax
	movl	%eax, %esp
	movl	-12(%ebp), %esi
	movb	-20(%ebp), %cl
	shlb	$2, %cl
	shrl	%cl, %esi
	andl	$15, %esi
	movl	%esi, -16(%edx)
	cmpl	$9, %esi
	jg	.LBB54_3
# BB#2:                                 # %if_fterm_mTerminal$dumphex_l168_n1661___SUCC
                                        #   in Loop: Header=BB54_1 Depth=1
	movl	-8(%ebp), %ecx
	movl	(%eax), %eax
	addl	$48, %eax
	jmp	.LBB54_4
	.align	16, 0x90
.LBB54_3:                               # %if_fterm_mTerminal$dumphex_l168_n1661___FAIL
                                        #   in Loop: Header=BB54_1 Depth=1
	movl	-8(%ebp), %ecx
	movl	(%eax), %eax
	addl	$55, %eax
.LBB54_4:                               # %if_fterm_mTerminal$dumphex_l168_n1661___DONE
                                        #   in Loop: Header=BB54_1 Depth=1
	subl	$16, %esp
	movl	%eax, 4(%esp)
	movl	%ecx, (%esp)
	calll	Terminal$putchar
	addl	$16, %esp
	cmpl	$0, -20(%ebp)
	jg	.LBB54_1
.LBB54_5:                               # %fterm_mTerminal$dumphex_l165_n1643___LOOP___END
	leal	-4(%ebp), %esp
	popl	%esi
	popl	%ebp
	retl
.Ltmp149:
	.size	Terminal$dumphex, .Ltmp149-Terminal$dumphex
	.cfi_endproc

	.globl	Terminal$dumphexi
	.align	16, 0x90
	.type	Terminal$dumphexi,@function
Terminal$dumphexi:                      # @"Terminal$dumphexi"
	.cfi_startproc
# BB#0:
	subl	$28, %esp
.Ltmp150:
	.cfi_def_cfa_offset 32
	movl	36(%esp), %eax
	movl	32(%esp), %ecx
	movl	%ecx, 24(%esp)
	movl	%eax, 20(%esp)
	movl	24(%esp), %ecx
	movl	%eax, 4(%esp)
	movl	%ecx, (%esp)
	movl	$8, 8(%esp)
	calll	Terminal$dumphex
	addl	$28, %esp
	retl
.Ltmp151:
	.size	Terminal$dumphexi, .Ltmp151-Terminal$dumphexi
	.cfi_endproc

	.globl	Terminal$printi
	.align	16, 0x90
	.type	Terminal$printi,@function
Terminal$printi:                        # @"Terminal$printi"
	.cfi_startproc
# BB#0:
	subl	$28, %esp
.Ltmp152:
	.cfi_def_cfa_offset 32
	movl	36(%esp), %eax
	movl	32(%esp), %ecx
	movl	%ecx, 24(%esp)
	movl	%eax, 20(%esp)
	movl	24(%esp), %ecx
	movl	%eax, 4(%esp)
	movl	%ecx, (%esp)
	movl	$0, 8(%esp)
	calll	Terminal$printlong
	addl	$28, %esp
	retl
.Ltmp153:
	.size	Terminal$printi, .Ltmp153-Terminal$printi
	.cfi_endproc

	.globl	Terminal$blank
	.align	16, 0x90
	.type	Terminal$blank,@function
Terminal$blank:                         # @"Terminal$blank"
	.cfi_startproc
# BB#0:
	subl	$12, %esp
.Ltmp154:
	.cfi_def_cfa_offset 16
	movl	16(%esp), %eax
	movl	%eax, 8(%esp)
	movl	$0, 4(%esp)
	movl	8(%esp), %eax
	movl	8(%eax), %ecx
	imull	4(%eax), %ecx
	addl	%ecx, %ecx
	testl	%ecx, %ecx
	jle	.LBB57_2
	.align	16, 0x90
.LBB57_1:                               # %fterm_mTerminal$blank_l186_n1694___LOOP___HEAD
                                        # =>This Inner Loop Header: Depth=1
	movl	8(%esp), %eax
	movl	(%eax), %eax
	movl	4(%esp), %ecx
	movb	$32, (%eax,%ecx)
	movl	8(%esp), %eax
	movl	(%eax), %ecx
	movl	4(%esp), %edx
	movb	20(%eax), %al
	movb	%al, 1(%edx,%ecx)
	movl	4(%esp), %eax
	addl	$2, %eax
	movl	%eax, 4(%esp)
	movl	8(%esp), %ecx
	movl	8(%ecx), %edx
	imull	4(%ecx), %edx
	addl	%edx, %edx
	cmpl	%edx, %eax
	jl	.LBB57_1
.LBB57_2:                               # %fterm_mTerminal$blank_l186_n1694___LOOP___END
	movl	8(%esp), %eax
	calll	*24(%eax)
	addl	$12, %esp
	retl
.Ltmp155:
	.size	Terminal$blank, .Ltmp155-Terminal$blank
	.cfi_endproc

	.globl	Terminal$bsod
	.align	16, 0x90
	.type	Terminal$bsod,@function
Terminal$bsod:                          # @"Terminal$bsod"
	.cfi_startproc
# BB#0:
	subl	$12, %esp
.Ltmp156:
	.cfi_def_cfa_offset 16
	movl	16(%esp), %eax
	movl	%eax, 8(%esp)
	movb	$48, 20(%eax)
	movl	8(%esp), %eax
	movl	%eax, (%esp)
	calll	Terminal$blank
	movl	8(%esp), %eax
	movl	$0, 12(%eax)
	movl	8(%esp), %eax
	movl	$0, 16(%eax)
	addl	$12, %esp
	retl
.Ltmp157:
	.size	Terminal$bsod, .Ltmp157-Terminal$bsod
	.cfi_endproc

	.globl	_null_updater
	.align	16, 0x90
	.type	_null_updater,@function
_null_updater:                          # @_null_updater
	.cfi_startproc
# BB#0:
	retl
.Ltmp158:
	.size	_null_updater, .Ltmp158-_null_updater
	.cfi_endproc

	.globl	kpanic
	.align	16, 0x90
	.type	kpanic,@function
kpanic:                                 # @kpanic
	.cfi_startproc
# BB#0:
	pushl	%esi
.Ltmp159:
	.cfi_def_cfa_offset 8
	subl	$40, %esp
.Ltmp160:
	.cfi_def_cfa_offset 48
.Ltmp161:
	.cfi_offset %esi, -8
	movl	60(%esp), %eax
	movl	56(%esp), %ecx
	movl	52(%esp), %edx
	movl	48(%esp), %esi
	movl	%esi, 36(%esp)
	movl	%edx, 32(%esp)
	movl	%ecx, 28(%esp)
	movl	%eax, 24(%esp)
	movl	gvar_fin_mu_lu_n8__kterm, %eax
	movl	$_update_framebuffer, 24(%eax)
	movl	gvar_fin_mu_lu_n8__kterm, %eax
	movl	%eax, (%esp)
	calll	Terminal$bsod
	movl	gvar_fin_mu_lu_n8__kterm, %eax
	movl	%eax, (%esp)
	movl	$.Lstrglobal_fpanic_mkpanic_l16_n1770, 4(%esp)
	calll	Terminal$printl
	movl	gvar_fin_mu_lu_n8__kterm, %eax
	movl	%eax, (%esp)
	movl	$.Lstrglobal_fpanic_mkpanic_l17_n1775, 4(%esp)
	calll	Terminal$printl
	movl	gvar_fin_mu_lu_n8__kterm, %eax
	movl	28(%esp), %ecx
	movl	%ecx, 4(%esp)
	movl	%eax, (%esp)
	calll	Terminal$printl
	movl	gvar_fin_mu_lu_n8__kterm, %eax
	movl	24(%esp), %ecx
	movl	%ecx, 4(%esp)
	movl	%eax, (%esp)
	calll	Terminal$printl
	movl	gvar_fin_mu_lu_n8__kterm, %eax
	movl	%eax, (%esp)
	movl	$.Lstrglobal_fpanic_mkpanic_l20_n1786, 4(%esp)
	calll	Terminal$printl
	movl	gvar_fin_mu_lu_n8__kterm, %eax
	movl	%eax, (%esp)
	movl	$.Lstrglobal_fpanic_mkpanic_l21_n1791, 4(%esp)
	calll	Terminal$print
	movl	gvar_fin_mu_lu_n8__kterm, %eax
	movl	36(%esp), %ecx
	movl	%ecx, 4(%esp)
	movl	%eax, (%esp)
	calll	Terminal$dumpbin
	movl	gvar_fin_mu_lu_n8__kterm, %eax
	movl	%eax, (%esp)
	movl	$.Lstrglobal_fpanic_mkpanic_l23_n1799, 4(%esp)
	calll	Terminal$print
	movl	gvar_fin_mu_lu_n8__kterm, %eax
	movl	32(%esp), %ecx
	movl	%ecx, 4(%esp)
	movl	%eax, (%esp)
	calll	Terminal$dumphexi
	movl	gvar_fin_mu_lu_n8__kterm, %eax
	movl	%eax, (%esp)
	movl	$.Lstrglobal_fpanic_mkpanic_l25_n1807, 4(%esp)
	calll	Terminal$print
	movl	gvar_fin_mu_lu_n8__kterm, %esi
	calll	__kgetcs
	movl	%eax, 4(%esp)
	movl	%esi, (%esp)
	movl	$2, 8(%esp)
	calll	Terminal$dumphex
	movl	gvar_fin_mu_lu_n8__kterm, %eax
	movl	%eax, (%esp)
	movl	$.Lstrglobal_fpanic_mkpanic_l27_n1817, 4(%esp)
	calll	Terminal$print
	movl	gvar_fin_mu_lu_n8__kterm, %esi
	calll	__kgetds
	movl	%eax, 4(%esp)
	movl	%esi, (%esp)
	movl	$2, 8(%esp)
	calll	Terminal$dumphex
	movl	gvar_fin_mu_lu_n8__kterm, %eax
	movl	%eax, (%esp)
	movl	$.Lstrglobal_fpanic_mkpanic_l29_n1827, 4(%esp)
	calll	Terminal$print
	movl	gvar_fin_mu_lu_n8__kterm, %esi
	calll	__kgetss
	movl	%eax, 4(%esp)
	movl	%esi, (%esp)
	movl	$2, 8(%esp)
	calll	Terminal$dumphex
	movl	gvar_fin_mu_lu_n8__kterm, %eax
	movl	%eax, (%esp)
	movl	$.Lstrglobal_fpanic_mkpanic_l31_n1837, 4(%esp)
	calll	Terminal$print
	movl	gvar_fin_mu_lu_n8__kterm, %esi
	calll	__kgetes
	movl	%eax, 4(%esp)
	movl	%esi, (%esp)
	movl	$2, 8(%esp)
	calll	Terminal$dumphex
	movl	gvar_fin_mu_lu_n8__kterm, %eax
	movl	%eax, (%esp)
	movl	$.Lstrglobal_fpanic_mkpanic_l33_n1847, 4(%esp)
	calll	Terminal$print
	movl	gvar_fin_mu_lu_n8__kterm, %esi
	calll	__kgetfs
	movl	%eax, 4(%esp)
	movl	%esi, (%esp)
	movl	$2, 8(%esp)
	calll	Terminal$dumphex
	movl	gvar_fin_mu_lu_n8__kterm, %eax
	movl	%eax, (%esp)
	movl	$.Lstrglobal_fpanic_mkpanic_l35_n1857, 4(%esp)
	calll	Terminal$print
	movl	gvar_fin_mu_lu_n8__kterm, %esi
	calll	__kgetgs
	movl	%eax, 4(%esp)
	movl	%esi, (%esp)
	movl	$2, 8(%esp)
	calll	Terminal$dumphex
	movl	gvar_fin_mu_lu_n8__kterm, %eax
	movl	%eax, (%esp)
	movl	$.Lstrglobal_fpanic_mkpanic_l37_n1867, 4(%esp)
	calll	Terminal$print
	movl	gvar_fin_mu_lu_n8__kterm, %esi
	calll	__kgeteflags
	movl	%eax, 4(%esp)
	movl	%esi, (%esp)
	calll	Terminal$dumpbin
	movl	gvar_fin_mu_lu_n8__kterm, %eax
	movl	%eax, (%esp)
	movl	$.Lstrglobal_fpanic_mkpanic_l39_n1876, 4(%esp)
	calll	Terminal$print
	movl	gvar_fin_mu_lu_n8__kterm, %esi
	calll	__kgetcr0
	movl	%eax, 4(%esp)
	movl	%esi, (%esp)
	calll	Terminal$dumpbin
	movl	gvar_fin_mu_lu_n8__kterm, %eax
	movl	%eax, (%esp)
	movl	$.Lstrglobal_fpanic_mkpanic_l41_n1885, 4(%esp)
	calll	Terminal$print
	movl	gvar_fin_mu_lu_n8__kterm, %esi
	calll	__kgetcr2
	movl	%eax, 4(%esp)
	movl	%esi, (%esp)
	calll	Terminal$dumphexi
	movl	gvar_fin_mu_lu_n8__kterm, %eax
	movl	%eax, (%esp)
	movl	$.Lstrglobal_fpanic_mkpanic_l43_n1894, 4(%esp)
	calll	Terminal$print
	movl	gvar_fin_mu_lu_n8__kterm, %esi
	calll	__kgetcr3
	movl	%eax, 4(%esp)
	movl	%esi, (%esp)
	calll	Terminal$dumphexi
	movl	gvar_fin_mu_lu_n8__kterm, %eax
	movl	%eax, (%esp)
	movl	$.Lstrglobal_fpanic_mkpanic_l45_n1903, 4(%esp)
	calll	Terminal$print
	movl	gvar_fin_mu_lu_n8__kterm, %esi
	calll	__kgetcr4
	movl	%eax, 4(%esp)
	movl	%esi, (%esp)
	calll	Terminal$dumpbin
	movl	gvar_fin_mu_lu_n8__kterm, %eax
	movl	%eax, (%esp)
	movl	$.Lstrglobal_fpanic_mkpanic_l47_n1912, 4(%esp)
	calll	Terminal$print
	calll	__khalt
	addl	$40, %esp
	popl	%esi
	retl
.Ltmp162:
	.size	kpanic, .Ltmp162-kpanic
	.cfi_endproc

	.globl	ikpanici
	.align	16, 0x90
	.type	ikpanici,@function
ikpanici:                               # @ikpanici
	.cfi_startproc
# BB#0:
	subl	$28, %esp
.Ltmp163:
	.cfi_def_cfa_offset 32
	movl	36(%esp), %eax
	movl	32(%esp), %ecx
	movl	%ecx, 24(%esp)
	movl	%eax, 20(%esp)
	movl	24(%esp), %ecx
	movl	%ecx, 8(%esp)
	movl	%eax, (%esp)
	movl	$.Lstrglobal_fpanic_mikpanici_l52_n1924, 12(%esp)
	movl	$0, 4(%esp)
	calll	kpanic
	addl	$28, %esp
	retl
.Ltmp164:
	.size	ikpanici, .Ltmp164-ikpanici
	.cfi_endproc

	.globl	ikpanic
	.align	16, 0x90
	.type	ikpanic,@function
ikpanic:                                # @ikpanic
	.cfi_startproc
# BB#0:
	subl	$12, %esp
.Ltmp165:
	.cfi_def_cfa_offset 16
	movl	16(%esp), %eax
	movl	%eax, 8(%esp)
	movl	%eax, (%esp)
	movl	$0, 4(%esp)
	calll	ikpanici
	addl	$12, %esp
	retl
.Ltmp166:
	.size	ikpanic, .Ltmp166-ikpanic
	.cfi_endproc

	.globl	cstr$len
	.align	16, 0x90
	.type	cstr$len,@function
cstr$len:                               # @"cstr$len"
	.cfi_startproc
# BB#0:
	subl	$8, %esp
.Ltmp167:
	.cfi_def_cfa_offset 12
	movl	12(%esp), %eax
	movl	%eax, 4(%esp)
	movl	$0, (%esp)
	movl	4(%esp), %eax
	cmpb	$0, (%eax)
	je	.LBB63_2
	.align	16, 0x90
.LBB63_1:                               # %futil_mcstr$len_l3_n1935___LOOP___HEAD
                                        # =>This Inner Loop Header: Depth=1
	movl	(%esp), %eax
	leal	1(%eax), %ecx
	movl	%ecx, (%esp)
	movl	4(%esp), %ecx
	cmpb	$0, 1(%ecx,%eax)
	jne	.LBB63_1
.LBB63_2:                               # %futil_mcstr$len_l3_n1935___LOOP___END
	movl	(%esp), %eax
	addl	$8, %esp
	retl
.Ltmp168:
	.size	cstr$len, .Ltmp168-cstr$len
	.cfi_endproc

	.globl	cstr$__eq__
	.align	16, 0x90
	.type	cstr$__eq__,@function
cstr$__eq__:                            # @"cstr$__eq__"
	.cfi_startproc
# BB#0:
	pushl	%ebp
.Ltmp169:
	.cfi_def_cfa_offset 8
.Ltmp170:
	.cfi_offset %ebp, -8
	movl	%esp, %ebp
.Ltmp171:
	.cfi_def_cfa_register %ebp
	pushl	%edi
	pushl	%esi
	subl	$16, %esp
.Ltmp172:
	.cfi_offset %esi, -16
.Ltmp173:
	.cfi_offset %edi, -12
	movl	12(%ebp), %eax
	movl	8(%ebp), %ecx
	movl	%ecx, -12(%ebp)
	movl	%eax, -16(%ebp)
	movl	-12(%ebp), %eax
	subl	$16, %esp
	movl	%eax, (%esp)
	calll	cstr$len
	addl	$16, %esp
	movl	%eax, %esi
	movl	-16(%ebp), %eax
	subl	$16, %esp
	movl	%eax, (%esp)
	calll	cstr$len
	addl	$16, %esp
	cmpl	%eax, %esi
	jne	.LBB64_1
# BB#3:                                 # %if_futil_mcstr$__eq___l9_n1967___DONE
	movl	%esp, %eax
	leal	-16(%eax), %edi
	movl	%edi, %esp
	movl	$0, -16(%eax)
	movl	-12(%ebp), %eax
	subl	$16, %esp
	movl	%eax, (%esp)
	calll	cstr$len
	addl	$16, %esp
	testl	%eax, %eax
	jle	.LBB64_6
	.align	16, 0x90
.LBB64_4:                               # %futil_mcstr$__eq___l13_n1972___LOOP___HEAD
                                        # =>This Inner Loop Header: Depth=1
	movl	-12(%ebp), %eax
	movl	(%edi), %ecx
	subl	$16, %esp
	movl	%ecx, 4(%esp)
	movl	%eax, (%esp)
	calll	cstr$idxi
	addl	$16, %esp
	movl	%eax, %esi
	movl	-16(%ebp), %eax
	movl	(%edi), %ecx
	subl	$16, %esp
	movl	%ecx, 4(%esp)
	movl	%eax, (%esp)
	calll	cstr$idxi
	addl	$16, %esp
	cmpl	%eax, %esi
	jne	.LBB64_1
# BB#5:                                 # %if_futil_mcstr$__eq___l14_n1984___DONE
                                        #   in Loop: Header=BB64_4 Depth=1
	movl	(%edi), %esi
	incl	%esi
	movl	%esi, (%edi)
	movl	-12(%ebp), %eax
	subl	$16, %esp
	movl	%eax, (%esp)
	calll	cstr$len
	addl	$16, %esp
	cmpl	%eax, %esi
	jl	.LBB64_4
.LBB64_6:                               # %futil_mcstr$__eq___l13_n1972___LOOP___END
	movb	$1, %al
	jmp	.LBB64_2
.LBB64_1:                               # %if_futil_mcstr$__eq___l9_n1967___SUCC
	xorl	%eax, %eax
.LBB64_2:                               # %if_futil_mcstr$__eq___l9_n1967___SUCC
	leal	-8(%ebp), %esp
	popl	%esi
	popl	%edi
	popl	%ebp
	retl
.Ltmp174:
	.size	cstr$__eq__, .Ltmp174-cstr$__eq__
	.cfi_endproc

	.globl	cstr$index
	.align	16, 0x90
	.type	cstr$index,@function
cstr$index:                             # @"cstr$index"
	.cfi_startproc
# BB#0:
	pushl	%esi
.Ltmp175:
	.cfi_def_cfa_offset 8
	subl	$24, %esp
.Ltmp176:
	.cfi_def_cfa_offset 32
.Ltmp177:
	.cfi_offset %esi, -8
	movb	36(%esp), %al
	movl	32(%esp), %ecx
	movl	%ecx, 20(%esp)
	movb	%al, 19(%esp)
	movl	$0, 12(%esp)
	movl	20(%esp), %eax
	movl	%eax, (%esp)
	calll	cstr$len
	testl	%eax, %eax
	jle	.LBB65_4
	.align	16, 0x90
.LBB65_1:                               # %futil_mcstr$index_l23_n2000___LOOP___HEAD
                                        # =>This Inner Loop Header: Depth=1
	movl	20(%esp), %eax
	movl	12(%esp), %ecx
	movl	%ecx, 4(%esp)
	movl	%eax, (%esp)
	calll	cstr$idxi
	movzbl	%al, %eax
	movzbl	19(%esp), %ecx
	cmpl	%ecx, %eax
	je	.LBB65_2
# BB#3:                                 # %if_futil_mcstr$index_l24_n2011___DONE
                                        #   in Loop: Header=BB65_1 Depth=1
	movl	12(%esp), %esi
	incl	%esi
	movl	%esi, 12(%esp)
	movl	20(%esp), %eax
	movl	%eax, (%esp)
	calll	cstr$len
	cmpl	%eax, %esi
	jl	.LBB65_1
.LBB65_4:                               # %futil_mcstr$index_l23_n2000___LOOP___END
	movl	$-1, %eax
	jmp	.LBB65_5
.LBB65_2:                               # %if_futil_mcstr$index_l24_n2011___SUCC
	movl	12(%esp), %eax
.LBB65_5:                               # %futil_mcstr$index_l23_n2000___LOOP___END
	addl	$24, %esp
	popl	%esi
	retl
.Ltmp178:
	.size	cstr$index, .Ltmp178-cstr$index
	.cfi_endproc

	.globl	cstr$ord
	.align	16, 0x90
	.type	cstr$ord,@function
cstr$ord:                               # @"cstr$ord"
	.cfi_startproc
# BB#0:
	pushl	%eax
.Ltmp179:
	.cfi_def_cfa_offset 8
	movl	8(%esp), %eax
	movl	%eax, (%esp)
	movzbl	(%eax), %eax
	popl	%edx
	retl
.Ltmp180:
	.size	cstr$ord, .Ltmp180-cstr$ord
	.cfi_endproc

	.globl	char
	.align	16, 0x90
	.type	char,@function
char:                                   # @char
	.cfi_startproc
# BB#0:
	subl	$12, %esp
.Ltmp181:
	.cfi_def_cfa_offset 16
	movl	16(%esp), %eax
	movl	%eax, 8(%esp)
	movl	%eax, (%esp)
	calll	cstr$ord
                                        # kill: AL<def> AL<kill> EAX<kill>
	addl	$12, %esp
	retl
.Ltmp182:
	.size	char, .Ltmp182-char
	.cfi_endproc

	.globl	cstr$idxi
	.align	16, 0x90
	.type	cstr$idxi,@function
cstr$idxi:                              # @"cstr$idxi"
	.cfi_startproc
# BB#0:
	subl	$8, %esp
.Ltmp183:
	.cfi_def_cfa_offset 12
	movl	16(%esp), %eax
	movl	12(%esp), %ecx
	movl	%ecx, 4(%esp)
	movl	%eax, (%esp)
	movl	4(%esp), %ecx
	movzbl	(%ecx,%eax), %eax
	addl	$8, %esp
	retl
.Ltmp184:
	.size	cstr$idxi, .Ltmp184-cstr$idxi
	.cfi_endproc

	.globl	hex_char_to_num
	.align	16, 0x90
	.type	hex_char_to_num,@function
hex_char_to_num:                        # @hex_char_to_num
	.cfi_startproc
# BB#0:
	pushl	%eax
.Ltmp185:
	.cfi_def_cfa_offset 8
	movl	8(%esp), %eax
	movl	%eax, (%esp)
	cmpl	$48, %eax
	jl	.LBB69_3
# BB#1:                                 # %if_futil_mhex_char_to_num_l41_n2049___SUCC
	cmpl	$57, (%esp)
	jg	.LBB69_2
# BB#4:                                 # %if_futil_mhex_char_to_num_l42_n2053___SUCC
	movl	(%esp), %eax
	addl	$-48, %eax
	popl	%edx
	retl
.LBB69_3:                               # %if_futil_mhex_char_to_num_l41_n2049___DONE
	movl	$-1, %eax
	popl	%edx
	retl
.LBB69_2:                               # %if_futil_mhex_char_to_num_l42_n2053___FAIL
	movl	(%esp), %eax
	addl	$-87, %eax
	popl	%edx
	retl
.Ltmp186:
	.size	hex_char_to_num, .Ltmp186-hex_char_to_num
	.cfi_endproc

	.globl	int$bitset
	.align	16, 0x90
	.type	int$bitset,@function
int$bitset:                             # @"int$bitset"
	.cfi_startproc
# BB#0:
	subl	$8, %esp
.Ltmp187:
	.cfi_def_cfa_offset 12
	movl	16(%esp), %eax
	movl	12(%esp), %ecx
	movl	%ecx, 4(%esp)
	movl	%eax, (%esp)
	movl	4(%esp), %eax
	movl	(%esp), %ecx
	btl	%ecx, %eax
	setb	%al
	addl	$8, %esp
	retl
.Ltmp188:
	.size	int$bitset, .Ltmp188-int$bitset
	.cfi_endproc

	.globl	bool$or
	.align	16, 0x90
	.type	bool$or,@function
bool$or:                                # @"bool$or"
	.cfi_startproc
# BB#0:
	pushl	%eax
.Ltmp189:
	.cfi_def_cfa_offset 8
	movb	12(%esp), %al
	movb	8(%esp), %cl
	andb	$1, %cl
	movb	%cl, 3(%esp)
	andb	$1, %al
	movb	%al, 2(%esp)
	movzbl	3(%esp), %eax
	cmpl	$1, %eax
	jne	.LBB71_2
# BB#1:                                 # %if_futil_mbool$or_l54_n2076___SUCC
	movb	3(%esp), %al
	popl	%edx
	retl
.LBB71_2:                               # %if_futil_mbool$or_l54_n2076___DONE
	movb	2(%esp), %al
	popl	%edx
	retl
.Ltmp190:
	.size	bool$or, .Ltmp190-bool$or
	.cfi_endproc

	.globl	bool$and
	.align	16, 0x90
	.type	bool$and,@function
bool$and:                               # @"bool$and"
	.cfi_startproc
# BB#0:
	pushl	%eax
.Ltmp191:
	.cfi_def_cfa_offset 8
	movb	12(%esp), %al
	movb	8(%esp), %cl
	andb	$1, %cl
	movb	%cl, 3(%esp)
	andb	$1, %al
	movb	%al, 2(%esp)
	movzbl	3(%esp), %eax
	cmpl	$1, %eax
	jne	.LBB72_3
# BB#1:                                 # %if_futil_mbool$and_l60_n2082___SUCC
	movzbl	2(%esp), %eax
	cmpl	$1, %eax
	jne	.LBB72_3
# BB#2:                                 # %if_futil_mbool$and_l61_n2084___SUCC
	movb	3(%esp), %al
	popl	%edx
	retl
.LBB72_3:                               # %if_futil_mbool$and_l60_n2082___DONE
	xorl	%eax, %eax
	popl	%edx
	retl
.Ltmp192:
	.size	bool$and, .Ltmp192-bool$and
	.cfi_endproc

	.globl	int$pow
	.align	16, 0x90
	.type	int$pow,@function
int$pow:                                # @"int$pow"
	.cfi_startproc
# BB#0:
	pushl	%ebp
.Ltmp193:
	.cfi_def_cfa_offset 8
.Ltmp194:
	.cfi_offset %ebp, -8
	movl	%esp, %ebp
.Ltmp195:
	.cfi_def_cfa_register %ebp
	subl	$8, %esp
	movl	12(%ebp), %eax
	movl	8(%ebp), %ecx
	movl	%ecx, -4(%ebp)
	movl	%eax, -8(%ebp)
	testl	%eax, %eax
	jne	.LBB73_3
# BB#1:                                 # %if_futil_mint$pow_l68_n2093___SUCC
	movl	$1, %eax
	jmp	.LBB73_2
.LBB73_3:                               # %if_futil_mint$pow_l68_n2093___DONE
	movl	%esp, %ecx
	leal	-16(%ecx), %eax
	movl	%eax, %esp
	movl	-4(%ebp), %edx
	movl	%edx, -16(%ecx)
	cmpl	$2, -8(%ebp)
	jl	.LBB73_5
	.align	16, 0x90
.LBB73_4:                               # %futil_mint$pow_l72_n2097___LOOP___HEAD
                                        # =>This Inner Loop Header: Depth=1
	decl	-8(%ebp)
	movl	(%eax), %ecx
	imull	-4(%ebp), %ecx
	movl	%ecx, (%eax)
	cmpl	$1, -8(%ebp)
	jg	.LBB73_4
.LBB73_5:                               # %futil_mint$pow_l72_n2097___LOOP___END
	movl	(%eax), %eax
.LBB73_2:                               # %if_futil_mint$pow_l68_n2093___SUCC
	movl	%ebp, %esp
	popl	%ebp
	retl
.Ltmp196:
	.size	int$pow, .Ltmp196-int$pow
	.cfi_endproc

	.globl	short$pow
	.align	16, 0x90
	.type	short$pow,@function
short$pow:                              # @"short$pow"
	.cfi_startproc
# BB#0:
	pushl	%ebp
.Ltmp197:
	.cfi_def_cfa_offset 8
.Ltmp198:
	.cfi_offset %ebp, -8
	movl	%esp, %ebp
.Ltmp199:
	.cfi_def_cfa_register %ebp
	subl	$8, %esp
	movw	12(%ebp), %ax
	movw	8(%ebp), %cx
	movw	%cx, -2(%ebp)
	movw	%ax, -4(%ebp)
	testw	%ax, %ax
	jne	.LBB74_3
# BB#1:                                 # %if_futil_mshort$pow_l79_n2117___SUCC
	movw	$1, %ax
	jmp	.LBB74_2
.LBB74_3:                               # %if_futil_mshort$pow_l79_n2117___DONE
	movl	%esp, %ecx
	leal	-16(%ecx), %eax
	movl	%eax, %esp
	movw	-2(%ebp), %dx
	movw	%dx, -16(%ecx)
	movswl	-4(%ebp), %ecx
	cmpl	$2, %ecx
	jl	.LBB74_5
	.align	16, 0x90
.LBB74_4:                               # %futil_mshort$pow_l83_n2122___LOOP___HEAD
                                        # =>This Inner Loop Header: Depth=1
	decw	-4(%ebp)
	movw	(%eax), %cx
	imulw	-2(%ebp), %cx
	movw	%cx, (%eax)
	movswl	-4(%ebp), %ecx
	cmpl	$1, %ecx
	jg	.LBB74_4
.LBB74_5:                               # %futil_mshort$pow_l83_n2122___LOOP___END
	movzwl	(%eax), %eax
                                        # kill: AX<def> AX<kill> EAX<kill>
.LBB74_2:                               # %if_futil_mshort$pow_l79_n2117___SUCC
	movl	%ebp, %esp
	popl	%ebp
	retl
.Ltmp200:
	.size	short$pow, .Ltmp200-short$pow
	.cfi_endproc

	.globl	short$b
	.align	16, 0x90
	.type	short$b,@function
short$b:                                # @"short$b"
	.cfi_startproc
# BB#0:
	pushl	%eax
.Ltmp201:
	.cfi_def_cfa_offset 8
	movw	8(%esp), %ax
	movw	%ax, 2(%esp)
	testw	%ax, %ax
	setne	%al
	popl	%edx
	retl
.Ltmp202:
	.size	short$b, .Ltmp202-short$b
	.cfi_endproc

	.globl	short$xor
	.align	16, 0x90
	.type	short$xor,@function
short$xor:                              # @"short$xor"
	.cfi_startproc
# BB#0:
	subl	$12, %esp
.Ltmp203:
	.cfi_def_cfa_offset 16
	movw	20(%esp), %ax
	movw	16(%esp), %cx
	movw	%cx, 10(%esp)
	movw	%ax, 8(%esp)
	movw	$0, 6(%esp)
	movw	$0, 4(%esp)
	movswl	6(%esp), %eax
	cmpl	$15, %eax
	jg	.LBB76_6
	.align	16, 0x90
.LBB76_1:                               # %futil_mshort$xor_l95_n2152___LOOP___HEAD
                                        # =>This Inner Loop Header: Depth=1
	movb	6(%esp), %cl
	movl	$1, %eax
	shll	%cl, %eax
	andw	10(%esp), %ax
	movl	%eax, (%esp)
	calll	short$b
	testb	$1, %al
	je	.LBB76_3
# BB#2:                                 # %if_futil_mshort$xor_l96_n2164___SUCC
                                        #   in Loop: Header=BB76_1 Depth=1
	movzbl	6(%esp), %eax
	movzwl	8(%esp), %ecx
	btl	%eax, %ecx
	jae	.LBB76_4
	jmp	.LBB76_5
	.align	16, 0x90
.LBB76_3:                               # %if_futil_mshort$xor_l96_n2164___FAIL
                                        #   in Loop: Header=BB76_1 Depth=1
	movb	6(%esp), %cl
	movl	$1, %eax
	shll	%cl, %eax
	andw	8(%esp), %ax
	movl	%eax, (%esp)
	calll	short$b
	testb	$1, %al
	je	.LBB76_5
.LBB76_4:                               # %if_futil_mshort$xor_l101_n2188___SUCC
                                        #   in Loop: Header=BB76_1 Depth=1
	movb	6(%esp), %cl
	movl	$1, %eax
	shll	%cl, %eax
	addw	%ax, 4(%esp)
.LBB76_5:                               # %if_futil_mshort$xor_l96_n2164___DONE
                                        #   in Loop: Header=BB76_1 Depth=1
	movzwl	6(%esp), %eax
	incl	%eax
	movw	%ax, 6(%esp)
	cwtl
	cmpl	$16, %eax
	jl	.LBB76_1
.LBB76_6:                               # %futil_mshort$xor_l95_n2152___LOOP___END
	movzwl	4(%esp), %eax
                                        # kill: AX<def> AX<kill> EAX<kill>
	addl	$12, %esp
	retl
.Ltmp204:
	.size	short$xor, .Ltmp204-short$xor
	.cfi_endproc

	.globl	Keymap$$init
	.align	16, 0x90
	.type	Keymap$$init,@function
Keymap$$init:                           # @"Keymap$$init"
	.cfi_startproc
# BB#0:
	subl	$12, %esp
.Ltmp205:
	.cfi_def_cfa_offset 16
	movl	$4, (%esp)
	calll	malloc
	movl	%eax, 8(%esp)
	movb	$27, (%eax)
	movl	8(%esp), %eax
	movb	$17, 2(%eax)
	movl	8(%esp), %eax
	movb	$18, 3(%eax)
	movl	8(%esp), %eax
	addl	$12, %esp
	retl
.Ltmp206:
	.size	Keymap$$init, .Ltmp206-Keymap$$init
	.cfi_endproc

	.globl	Keymap$translate_keycode
	.align	16, 0x90
	.type	Keymap$translate_keycode,@function
Keymap$translate_keycode:               # @"Keymap$translate_keycode"
	.cfi_startproc
# BB#0:
	subl	$28, %esp
.Ltmp207:
	.cfi_def_cfa_offset 32
	movb	40(%esp), %al
	movl	36(%esp), %ecx
	movl	32(%esp), %edx
	movl	%edx, 24(%esp)
	movl	%ecx, 20(%esp)
	andb	$1, %al
	movb	%al, 19(%esp)
	movl	$.Lstrglobal_fkeymap_us_mKeymap$translate_keycode_l16_n2227, (%esp)
	calll	cstr$ord
	movl	%eax, 12(%esp)
	cmpl	$1, 20(%esp)
	jne	.LBB78_2
# BB#1:                                 # %if_fkeymap_us_mKeymap$translate_keycode_l17_n2233___SUCC
	movl	$27, 12(%esp)
	jmp	.LBB78_35
.LBB78_2:                               # %if_fkeymap_us_mKeymap$translate_keycode_l17_n2233___FAIL
	movl	20(%esp), %eax
	cmpl	$2, %eax
	jl	.LBB78_8
# BB#3:                                 # %if_fkeymap_us_mKeymap$translate_keycode_l17_n2233___FAIL
	movl	$14, %ecx
	cmpl	%ecx, %eax
	jge	.LBB78_8
# BB#4:                                 # %if_fkeymap_us_mKeymap$translate_keycode_l17_n2242___SUCC
	movzbl	19(%esp), %eax
	cmpl	$1, %eax
	jne	.LBB78_7
# BB#5:                                 # %if_fkeymap_us_mKeymap$translate_keycode_l20_n2244___SUCC
	movl	20(%esp), %eax
	addl	$-2, %eax
	movl	%eax, 4(%esp)
	movl	$.Lstrglobal_fkeymap_us_mKeymap$translate_keycode_l21_n2246, (%esp)
	calll	cstr$idxi
	jmp	.LBB78_34
.LBB78_8:                               # %if_fkeymap_us_mKeymap$translate_keycode_l17_n2242___FAIL
	cmpl	$15, 20(%esp)
	jne	.LBB78_10
# BB#9:                                 # %if_fkeymap_us_mKeymap$translate_keycode_l17_n2262___SUCC
	movl	$9, 12(%esp)
	jmp	.LBB78_35
.LBB78_7:                               # %if_fkeymap_us_mKeymap$translate_keycode_l20_n2244___FAIL
	movl	20(%esp), %eax
	addl	$-2, %eax
	movl	%eax, 4(%esp)
	movl	$.Lstrglobal_fkeymap_us_mKeymap$translate_keycode_l23_n2253, (%esp)
	calll	cstr$idxi
	jmp	.LBB78_34
.LBB78_10:                              # %if_fkeymap_us_mKeymap$translate_keycode_l17_n2262___FAIL
	movl	20(%esp), %eax
	cmpl	$16, %eax
	jl	.LBB78_15
# BB#11:                                # %if_fkeymap_us_mKeymap$translate_keycode_l17_n2262___FAIL
	movl	$29, %ecx
	cmpl	%ecx, %eax
	jge	.LBB78_15
# BB#12:                                # %if_fkeymap_us_mKeymap$translate_keycode_l17_n2271___SUCC
	movzbl	19(%esp), %eax
	cmpl	$1, %eax
	jne	.LBB78_14
# BB#13:                                # %if_fkeymap_us_mKeymap$translate_keycode_l28_n2273___SUCC
	movl	20(%esp), %eax
	addl	$-16, %eax
	movl	%eax, 4(%esp)
	movl	$.Lstrglobal_fkeymap_us_mKeymap$translate_keycode_l29_n2275, (%esp)
	calll	cstr$idxi
	jmp	.LBB78_34
.LBB78_15:                              # %if_fkeymap_us_mKeymap$translate_keycode_l17_n2271___FAIL
	movl	20(%esp), %eax
	cmpl	$30, %eax
	jl	.LBB78_20
# BB#16:                                # %if_fkeymap_us_mKeymap$translate_keycode_l17_n2271___FAIL
	movl	$42, %ecx
	cmpl	%ecx, %eax
	jge	.LBB78_20
# BB#17:                                # %if_fkeymap_us_mKeymap$translate_keycode_l17_n2295___SUCC
	movzbl	19(%esp), %eax
	cmpl	$1, %eax
	jne	.LBB78_19
# BB#18:                                # %if_fkeymap_us_mKeymap$translate_keycode_l35_n2297___SUCC
	movl	20(%esp), %eax
	addl	$-30, %eax
	movl	%eax, 4(%esp)
	movl	$.Lstrglobal_fkeymap_us_mKeymap$translate_keycode_l36_n2299, (%esp)
	calll	cstr$idxi
	jmp	.LBB78_34
.LBB78_14:                              # %if_fkeymap_us_mKeymap$translate_keycode_l28_n2273___FAIL
	movl	20(%esp), %eax
	addl	$-16, %eax
	movl	%eax, 4(%esp)
	movl	$.Lstrglobal_fkeymap_us_mKeymap$translate_keycode_l31_n2282, (%esp)
	calll	cstr$idxi
	jmp	.LBB78_34
.LBB78_20:                              # %if_fkeymap_us_mKeymap$translate_keycode_l17_n2295___FAIL
	movl	20(%esp), %eax
	cmpl	$43, %eax
	jl	.LBB78_25
# BB#21:                                # %if_fkeymap_us_mKeymap$translate_keycode_l17_n2295___FAIL
	movl	$54, %ecx
	cmpl	%ecx, %eax
	jge	.LBB78_25
# BB#22:                                # %if_fkeymap_us_mKeymap$translate_keycode_l17_n2319___SUCC
	movzbl	19(%esp), %eax
	cmpl	$1, %eax
	jne	.LBB78_24
# BB#23:                                # %if_fkeymap_us_mKeymap$translate_keycode_l42_n2321___SUCC
	movl	20(%esp), %eax
	addl	$-43, %eax
	movl	%eax, 4(%esp)
	movl	$.Lstrglobal_fkeymap_us_mKeymap$translate_keycode_l43_n2323, (%esp)
	calll	cstr$idxi
	jmp	.LBB78_34
.LBB78_19:                              # %if_fkeymap_us_mKeymap$translate_keycode_l35_n2297___FAIL
	movl	20(%esp), %eax
	addl	$-30, %eax
	movl	%eax, 4(%esp)
	movl	$.Lstrglobal_fkeymap_us_mKeymap$translate_keycode_l38_n2306, (%esp)
	calll	cstr$idxi
	jmp	.LBB78_34
.LBB78_25:                              # %if_fkeymap_us_mKeymap$translate_keycode_l17_n2319___FAIL
	cmpl	$55, 20(%esp)
	jne	.LBB78_28
# BB#26:                                # %if_fkeymap_us_mKeymap$translate_keycode_l17_n2339___SUCC
	movl	$.Lstrglobal_fkeymap_us_mKeymap$translate_keycode_l49_n2341, (%esp)
	calll	cstr$ord
	jmp	.LBB78_34
.LBB78_24:                              # %if_fkeymap_us_mKeymap$translate_keycode_l42_n2321___FAIL
	movl	20(%esp), %eax
	addl	$-43, %eax
	movl	%eax, 4(%esp)
	movl	$.Lstrglobal_fkeymap_us_mKeymap$translate_keycode_l45_n2330, (%esp)
	calll	cstr$idxi
	jmp	.LBB78_34
.LBB78_28:                              # %if_fkeymap_us_mKeymap$translate_keycode_l17_n2339___FAIL
	cmpl	$57, 20(%esp)
	jne	.LBB78_30
# BB#29:                                # %if_fkeymap_us_mKeymap$translate_keycode_l17_n2347___SUCC
	movl	$.Lstrglobal_fkeymap_us_mKeymap$translate_keycode_l51_n2349, (%esp)
	calll	cstr$ord
	jmp	.LBB78_34
.LBB78_30:                              # %if_fkeymap_us_mKeymap$translate_keycode_l17_n2347___FAIL
	cmpl	$59, 20(%esp)
	jne	.LBB78_32
# BB#31:                                # %if_fkeymap_us_mKeymap$translate_keycode_l17_n2355___SUCC
	movl	24(%esp), %eax
	movzbl	2(%eax), %eax
	jmp	.LBB78_34
.LBB78_32:                              # %if_fkeymap_us_mKeymap$translate_keycode_l17_n2355___FAIL
	cmpl	$60, 20(%esp)
	jne	.LBB78_35
# BB#33:                                # %if_fkeymap_us_mKeymap$translate_keycode_l17_n2363___SUCC
	movl	24(%esp), %eax
	movzbl	3(%eax), %eax
.LBB78_34:                              # %if_fkeymap_us_mKeymap$translate_keycode_l17_n2233___DONE
	movl	%eax, 12(%esp)
.LBB78_35:                              # %if_fkeymap_us_mKeymap$translate_keycode_l17_n2233___DONE
	movb	12(%esp), %al
	addl	$28, %esp
	retl
.Ltmp208:
	.size	Keymap$translate_keycode, .Ltmp208-Keymap$translate_keycode
	.cfi_endproc

	.globl	Keymap$is_shifted
	.align	16, 0x90
	.type	Keymap$is_shifted,@function
Keymap$is_shifted:                      # @"Keymap$is_shifted"
	.cfi_startproc
# BB#0:
	subl	$8, %esp
.Ltmp209:
	.cfi_def_cfa_offset 12
	movl	16(%esp), %eax
	movl	12(%esp), %ecx
	movl	%ecx, 4(%esp)
	movl	%eax, (%esp)
	movl	(%eax), %eax
	movb	42(%eax), %cl
	addb	54(%eax), %cl
	setne	%al
	addl	$8, %esp
	retl
.Ltmp210:
	.size	Keymap$is_shifted, .Ltmp210-Keymap$is_shifted
	.cfi_endproc

	.globl	init_keymap
	.align	16, 0x90
	.type	init_keymap,@function
init_keymap:                            # @init_keymap
	.cfi_startproc
# BB#0:
	subl	$12, %esp
.Ltmp211:
	.cfi_def_cfa_offset 16
	calll	Keymap$$init
	movl	%eax, gvar_fkeymap_us_mu_lu_n11__keymap
	addl	$12, %esp
	retl
.Ltmp212:
	.size	init_keymap, .Ltmp212-init_keymap
	.cfi_endproc

	.globl	translate_keycode
	.align	16, 0x90
	.type	translate_keycode,@function
translate_keycode:                      # @translate_keycode
	.cfi_startproc
# BB#0:
	subl	$28, %esp
.Ltmp213:
	.cfi_def_cfa_offset 32
	movb	36(%esp), %al
	movl	32(%esp), %ecx
	movl	%ecx, 24(%esp)
	andb	$1, %al
	movb	%al, 23(%esp)
	movl	gvar_fkeymap_us_mu_lu_n11__keymap, %eax
	movl	24(%esp), %ecx
	movzbl	23(%esp), %edx
	movl	%edx, 8(%esp)
	movl	%ecx, 4(%esp)
	movl	%eax, (%esp)
	calll	Keymap$translate_keycode
	addl	$28, %esp
	retl
.Ltmp214:
	.size	translate_keycode, .Ltmp214-translate_keycode
	.cfi_endproc

	.globl	KeyboardBuf$$new
	.align	16, 0x90
	.type	KeyboardBuf$$new,@function
KeyboardBuf$$new:                       # @"KeyboardBuf$$new"
	.cfi_startproc
# BB#0:
	pushl	%esi
.Ltmp215:
	.cfi_def_cfa_offset 8
	subl	$24, %esp
.Ltmp216:
	.cfi_def_cfa_offset 32
.Ltmp217:
	.cfi_offset %esi, -8
	movl	40(%esp), %eax
	movl	36(%esp), %ecx
	movl	32(%esp), %edx
	movl	%edx, 20(%esp)
	movl	%ecx, 16(%esp)
	movl	%eax, 12(%esp)
	movl	$40, (%esp)
	calll	malloc
	movl	%eax, 8(%esp)
	movl	$0, (%eax)
	movl	8(%esp), %eax
	movl	20(%esp), %ecx
	movl	%ecx, 4(%eax)
	movl	8(%esp), %esi
	movl	20(%esp), %eax
	movl	%eax, (%esp)
	calll	malloc
	movl	%eax, 8(%esi)
	movl	8(%esp), %eax
	movl	16(%esp), %ecx
	movl	%ecx, 16(%eax)
	movl	8(%esp), %eax
	movl	12(%esp), %ecx
	movl	%ecx, 20(%eax)
	movl	8(%esp), %eax
	addl	$24, %esp
	popl	%esi
	retl
.Ltmp218:
	.size	KeyboardBuf$$new, .Ltmp218-KeyboardBuf$$new
	.cfi_endproc

	.globl	KeyboardBuf$append
	.align	16, 0x90
	.type	KeyboardBuf$append,@function
KeyboardBuf$append:                     # @"KeyboardBuf$append"
	.cfi_startproc
# BB#0:
	subl	$8, %esp
.Ltmp219:
	.cfi_def_cfa_offset 12
	movb	16(%esp), %al
	movl	12(%esp), %ecx
	movl	%ecx, 4(%esp)
	movb	%al, 3(%esp)
	movl	4(%esp), %ecx
	movl	(%ecx), %edx
	movl	8(%ecx), %ecx
	movb	%al, (%ecx,%edx)
	movl	4(%esp), %eax
	movl	(%eax), %ecx
	movl	8(%eax), %eax
	movb	$0, 1(%ecx,%eax)
	movl	4(%esp), %eax
	incl	(%eax)
	addl	$8, %esp
	retl
.Ltmp220:
	.size	KeyboardBuf$append, .Ltmp220-KeyboardBuf$append
	.cfi_endproc

	.globl	KeyboardBuf$delete1
	.align	16, 0x90
	.type	KeyboardBuf$delete1,@function
KeyboardBuf$delete1:                    # @"KeyboardBuf$delete1"
	.cfi_startproc
# BB#0:
	pushl	%eax
.Ltmp221:
	.cfi_def_cfa_offset 8
	movl	8(%esp), %eax
	movl	%eax, (%esp)
	cmpl	$0, (%eax)
	jle	.LBB84_2
# BB#1:                                 # %if_fkappsutil_mKeyboardBuf$delete1_l27_n2464___SUCC
	movl	(%esp), %eax
	decl	(%eax)
	movl	(%esp), %eax
	movl	(%eax), %ecx
	movl	8(%eax), %eax
	movb	$0, (%eax,%ecx)
.LBB84_2:                               # %if_fkappsutil_mKeyboardBuf$delete1_l27_n2464___DONE
	popl	%eax
	retl
.Ltmp222:
	.size	KeyboardBuf$delete1, .Ltmp222-KeyboardBuf$delete1
	.cfi_endproc

	.globl	KeyboardBuf$stringview
	.align	16, 0x90
	.type	KeyboardBuf$stringview,@function
KeyboardBuf$stringview:                 # @"KeyboardBuf$stringview"
	.cfi_startproc
# BB#0:
	pushl	%eax
.Ltmp223:
	.cfi_def_cfa_offset 8
	movl	8(%esp), %eax
	movl	%eax, (%esp)
	movl	8(%eax), %eax
	popl	%edx
	retl
.Ltmp224:
	.size	KeyboardBuf$stringview, .Ltmp224-KeyboardBuf$stringview
	.cfi_endproc

	.globl	KeyboardBuf$clear
	.align	16, 0x90
	.type	KeyboardBuf$clear,@function
KeyboardBuf$clear:                      # @"KeyboardBuf$clear"
	.cfi_startproc
# BB#0:
	pushl	%eax
.Ltmp225:
	.cfi_def_cfa_offset 8
	movl	8(%esp), %eax
	movl	%eax, (%esp)
	movl	$0, (%eax)
	movl	(%esp), %eax
	movl	8(%eax), %eax
	movb	$0, (%eax)
	popl	%eax
	retl
.Ltmp226:
	.size	KeyboardBuf$clear, .Ltmp226-KeyboardBuf$clear
	.cfi_endproc

	.globl	KeyboardBuf$handleevent
	.align	16, 0x90
	.type	KeyboardBuf$handleevent,@function
KeyboardBuf$handleevent:                # @"KeyboardBuf$handleevent"
	.cfi_startproc
# BB#0:
	pushl	%ebp
.Ltmp227:
	.cfi_def_cfa_offset 8
.Ltmp228:
	.cfi_offset %ebp, -8
	movl	%esp, %ebp
.Ltmp229:
	.cfi_def_cfa_register %ebp
	pushl	%edi
	pushl	%esi
	subl	$16, %esp
.Ltmp230:
	.cfi_offset %esi, -16
.Ltmp231:
	.cfi_offset %edi, -12
	movb	16(%ebp), %al
	andb	$1, %al
	movl	12(%ebp), %ecx
	movl	8(%ebp), %edx
	movl	%edx, -12(%ebp)
	movl	%ecx, -16(%ebp)
	movb	%al, -17(%ebp)
	je	.LBB87_10
# BB#1:                                 # %if_fkappsutil_mKeyboardBuf$handleevent_l42_n2505___SUCC
	cmpl	$14, -16(%ebp)
	jne	.LBB87_4
# BB#2:                                 # %if_fkappsutil_mKeyboardBuf$handleevent_l43_n2509___SUCC
	movl	-12(%ebp), %eax
	cmpl	$0, (%eax)
	je	.LBB87_10
# BB#3:                                 # %if_fkappsutil_mKeyboardBuf$handleevent_l44_n2515___SUCC
	movl	-12(%ebp), %eax
	movl	16(%eax), %eax
	subl	$16, %esp
	movl	%eax, (%esp)
	movl	$0, 8(%esp)
	movl	$-1, 4(%esp)
	calll	Terminal$movecursor
	addl	$16, %esp
	movl	-12(%ebp), %eax
	movl	16(%eax), %eax
	subl	$16, %esp
	movl	%eax, (%esp)
	movl	$.Lstrglobal_fkappsutil_mKeyboardBuf$handleevent_l46_n2527, 4(%esp)
	calll	Terminal$print
	addl	$16, %esp
	movl	-12(%ebp), %eax
	movl	16(%eax), %eax
	subl	$16, %esp
	movl	%eax, (%esp)
	movl	$0, 8(%esp)
	movl	$-1, 4(%esp)
	calll	Terminal$movecursor
	addl	$16, %esp
	movl	-12(%ebp), %eax
	subl	$16, %esp
	movl	%eax, (%esp)
	calll	KeyboardBuf$delete1
	jmp	.LBB87_9
.LBB87_4:                               # %if_fkappsutil_mKeyboardBuf$handleevent_l43_n2509___FAIL
	cmpl	$28, -16(%ebp)
	jne	.LBB87_6
# BB#5:                                 # %if_fkappsutil_mKeyboardBuf$handleevent_l43_n2542___SUCC
	movl	-12(%ebp), %eax
	movl	16(%eax), %eax
	subl	$16, %esp
	movl	%eax, (%esp)
	movl	$.Lstrglobal_fkappsutil_mKeyboardBuf$handleevent_l51_n2547, 4(%esp)
	calll	Terminal$print
	addl	$16, %esp
	movl	-12(%ebp), %eax
	movl	20(%eax), %esi
	subl	$16, %esp
	movl	%eax, (%esp)
	calll	KeyboardBuf$stringview
	addl	$16, %esp
	subl	$16, %esp
	movl	%eax, (%esp)
	calll	*%esi
	addl	$16, %esp
	movl	-12(%ebp), %eax
	subl	$16, %esp
	movl	%eax, (%esp)
	calll	KeyboardBuf$clear
	jmp	.LBB87_9
.LBB87_6:                               # %if_fkappsutil_mKeyboardBuf$handleevent_l43_n2542___FAIL
	cmpl	$42, -16(%ebp)
	je	.LBB87_10
# BB#7:                                 # %if_fkappsutil_mKeyboardBuf$handleevent_l43_n2561___FAIL
	cmpl	$54, -16(%ebp)
	je	.LBB87_10
# BB#8:                                 # %if_fkappsutil_mKeyboardBuf$handleevent_l43_n2566___FAIL
	movl	%esp, %esi
	leal	-16(%esi), %eax
	movl	%eax, %esp
	movl	-16(%ebp), %edi
	movl	gvar_fkeymap_us_mu_lu_n11__keymap, %eax
	movl	gvar_firqio_mu_lu_n5__system_kbdstate, %ecx
	subl	$16, %esp
	movl	%ecx, 4(%esp)
	movl	%eax, (%esp)
	calll	Keymap$is_shifted
	addl	$16, %esp
	subl	$16, %esp
	movzbl	%al, %eax
	movl	%eax, 4(%esp)
	movl	%edi, (%esp)
	calll	translate_keycode
	addl	$16, %esp
	movb	%al, -16(%esi)
	movl	-12(%ebp), %eax
	movl	16(%eax), %eax
	movzbl	-16(%esi), %ecx
	subl	$16, %esp
	movl	%ecx, 4(%esp)
	movl	%eax, (%esp)
	calll	Terminal$putchar
	addl	$16, %esp
	movl	-12(%ebp), %eax
	movzbl	-16(%esi), %ecx
	subl	$16, %esp
	movl	%ecx, 4(%esp)
	movl	%eax, (%esp)
	calll	KeyboardBuf$append
.LBB87_9:                               # %if_fkappsutil_mKeyboardBuf$handleevent_l42_n2505___DONE
	addl	$16, %esp
.LBB87_10:                              # %if_fkappsutil_mKeyboardBuf$handleevent_l42_n2505___DONE
	leal	-8(%ebp), %esp
	popl	%esi
	popl	%edi
	popl	%ebp
	retl
.Ltmp232:
	.size	KeyboardBuf$handleevent, .Ltmp232-KeyboardBuf$handleevent
	.cfi_endproc

	.globl	RawMultibootInfo$get_tag
	.align	16, 0x90
	.type	RawMultibootInfo$get_tag,@function
RawMultibootInfo$get_tag:               # @"RawMultibootInfo$get_tag"
	.cfi_startproc
# BB#0:
	pushl	%esi
.Ltmp233:
	.cfi_def_cfa_offset 8
	subl	$40, %esp
.Ltmp234:
	.cfi_def_cfa_offset 48
.Ltmp235:
	.cfi_offset %esi, -8
	movl	52(%esp), %eax
	movl	48(%esp), %ecx
	movl	%ecx, 36(%esp)
	movl	%eax, 32(%esp)
	movl	$0, 28(%esp)
	movl	$8, 24(%esp)
	movl	36(%esp), %eax
	movl	%eax, 20(%esp)
	jmp	.LBB88_1
	.align	16, 0x90
.LBB88_6:                               # %if_fmbdata_mRawMultibootInfo$get_tag_l23_n2619___DONE
                                        #   in Loop: Header=BB88_1 Depth=1
	incl	28(%esp)
.LBB88_1:                               # =>This Inner Loop Header: Depth=1
	movl	24(%esp), %eax
	movl	36(%esp), %ecx
	cmpl	(%ecx), %eax
	jge	.LBB88_7
# BB#2:                                 # %fmbdata_mRawMultibootInfo$get_tag_l18_n2592___LOOP___HEAD
                                        #   in Loop: Header=BB88_1 Depth=1
	movl	28(%esp), %eax
	cmpl	32(%esp), %eax
	je	.LBB88_3
# BB#4:                                 # %if_fmbdata_mRawMultibootInfo$get_tag_l19_n2601___DONE
                                        #   in Loop: Header=BB88_1 Depth=1
	movl	24(%esp), %esi
	movl	20(%esp), %eax
	movl	%esi, 4(%esp)
	movl	%eax, (%esp)
	calll	ptr$offset
	addl	4(%eax), %esi
	movl	%esi, 24(%esp)
	movl	%esi, %eax
	sarl	$31, %eax
	shrl	$29, %eax
	addl	%esi, %eax
	andl	$-8, %eax
	cmpl	%eax, %esi
	je	.LBB88_6
# BB#5:                                 # %if_fmbdata_mRawMultibootInfo$get_tag_l23_n2619___SUCC
                                        #   in Loop: Header=BB88_1 Depth=1
	movl	24(%esp), %eax
	movl	%eax, %ecx
	sarl	$31, %ecx
	shrl	$29, %ecx
	addl	%eax, %ecx
	andl	$-8, %ecx
	movl	%eax, %edx
	subl	%ecx, %edx
	negl	%edx
	leal	8(%eax,%edx), %eax
	movl	%eax, 24(%esp)
	jmp	.LBB88_6
.LBB88_7:                               # %fmbdata_mRawMultibootInfo$get_tag_l18_n2592___LOOP___END
	xorl	%eax, %eax
.LBB88_8:                               # %fmbdata_mRawMultibootInfo$get_tag_l18_n2592___LOOP___END
	addl	$40, %esp
	popl	%esi
	retl
.LBB88_3:                               # %if_fmbdata_mRawMultibootInfo$get_tag_l19_n2601___SUCC
	movl	20(%esp), %eax
	movl	24(%esp), %ecx
	movl	%ecx, 4(%esp)
	movl	%eax, (%esp)
	calll	ptr$offset
	jmp	.LBB88_8
.Ltmp236:
	.size	RawMultibootInfo$get_tag, .Ltmp236-RawMultibootInfo$get_tag
	.cfi_endproc

	.globl	RawMultibootInfo$get_type
	.align	16, 0x90
	.type	RawMultibootInfo$get_type,@function
RawMultibootInfo$get_type:              # @"RawMultibootInfo$get_type"
	.cfi_startproc
# BB#0:
	subl	$28, %esp
.Ltmp237:
	.cfi_def_cfa_offset 32
	movl	36(%esp), %eax
	movl	32(%esp), %ecx
	movl	%ecx, 24(%esp)
	movl	%eax, 20(%esp)
	movl	$0, 16(%esp)
	movl	24(%esp), %eax
	movl	%eax, (%esp)
	movl	$0, 4(%esp)
	jmp	.LBB89_1
	.align	16, 0x90
.LBB89_3:                               # %if_fmbdata_mRawMultibootInfo$get_type_l34_n2657___DONE
                                        #   in Loop: Header=BB89_1 Depth=1
	movl	16(%esp), %eax
	incl	%eax
	movl	%eax, 16(%esp)
	movl	24(%esp), %ecx
	movl	%eax, 4(%esp)
	movl	%ecx, (%esp)
.LBB89_1:                               # =>This Inner Loop Header: Depth=1
	calll	RawMultibootInfo$get_tag
	movl	%eax, 12(%esp)
	cmpl	$0, (%eax)
	je	.LBB89_4
# BB#2:                                 # %fmbdata_mRawMultibootInfo$get_type_l33_n2646___LOOP___HEAD
                                        #   in Loop: Header=BB89_1 Depth=1
	movl	12(%esp), %eax
	movl	(%eax), %eax
	cmpl	20(%esp), %eax
	jne	.LBB89_3
# BB#5:                                 # %if_fmbdata_mRawMultibootInfo$get_type_l34_n2657___SUCC
	movl	12(%esp), %eax
	addl	$28, %esp
	retl
.LBB89_4:                               # %fmbdata_mRawMultibootInfo$get_type_l33_n2646___LOOP___END
	xorl	%eax, %eax
	addl	$28, %esp
	retl
.Ltmp238:
	.size	RawMultibootInfo$get_type, .Ltmp238-RawMultibootInfo$get_type
	.cfi_endproc

	.globl	RawMultibootInfo$has_type
	.align	16, 0x90
	.type	RawMultibootInfo$has_type,@function
RawMultibootInfo$has_type:              # @"RawMultibootInfo$has_type"
	.cfi_startproc
# BB#0:
	subl	$28, %esp
.Ltmp239:
	.cfi_def_cfa_offset 32
	movl	36(%esp), %eax
	movl	32(%esp), %ecx
	movl	%ecx, 24(%esp)
	movl	%eax, 20(%esp)
	movl	$0, 16(%esp)
	movl	24(%esp), %eax
	movl	%eax, (%esp)
	movl	$0, 4(%esp)
	jmp	.LBB90_1
	.align	16, 0x90
.LBB90_3:                               # %if_fmbdata_mRawMultibootInfo$has_type_l47_n2692___DONE
                                        #   in Loop: Header=BB90_1 Depth=1
	movl	16(%esp), %eax
	incl	%eax
	movl	%eax, 16(%esp)
	movl	24(%esp), %ecx
	movl	%eax, 4(%esp)
	movl	%ecx, (%esp)
.LBB90_1:                               # =>This Inner Loop Header: Depth=1
	calll	RawMultibootInfo$get_tag
	movl	%eax, 12(%esp)
	cmpl	$0, (%eax)
	je	.LBB90_4
# BB#2:                                 # %fmbdata_mRawMultibootInfo$has_type_l46_n2681___LOOP___HEAD
                                        #   in Loop: Header=BB90_1 Depth=1
	movl	12(%esp), %eax
	movl	(%eax), %eax
	cmpl	20(%esp), %eax
	jne	.LBB90_3
# BB#5:                                 # %if_fmbdata_mRawMultibootInfo$has_type_l47_n2692___SUCC
	movb	$1, %al
	addl	$28, %esp
	retl
.LBB90_4:                               # %fmbdata_mRawMultibootInfo$has_type_l46_n2681___LOOP___END
	xorl	%eax, %eax
	addl	$28, %esp
	retl
.Ltmp240:
	.size	RawMultibootInfo$has_type, .Ltmp240-RawMultibootInfo$has_type
	.cfi_endproc

	.globl	RawMultibootInfo$print
	.align	16, 0x90
	.type	RawMultibootInfo$print,@function
RawMultibootInfo$print:                 # @"RawMultibootInfo$print"
	.cfi_startproc
# BB#0:
	pushl	%ebp
.Ltmp241:
	.cfi_def_cfa_offset 8
.Ltmp242:
	.cfi_offset %ebp, -8
	movl	%esp, %ebp
.Ltmp243:
	.cfi_def_cfa_register %ebp
	pushl	%esi
	subl	$20, %esp
.Ltmp244:
	.cfi_offset %esi, -12
	movl	8(%ebp), %eax
	movl	%eax, -8(%ebp)
	movl	gvar_fin_mu_lu_n8__kterm, %eax
	subl	$16, %esp
	movl	%eax, (%esp)
	movl	$.Lstrglobal_fmbdata_mRawMultibootInfo$print_l56_n2711, 4(%esp)
	calll	Terminal$print
	addl	$16, %esp
	movl	gvar_fin_mu_lu_n8__kterm, %eax
	movl	-8(%ebp), %ecx
	movl	(%ecx), %ecx
	subl	$16, %esp
	movl	%ecx, 4(%esp)
	movl	%eax, (%esp)
	calll	Terminal$printi
	addl	$16, %esp
	movl	gvar_fin_mu_lu_n8__kterm, %eax
	subl	$16, %esp
	movl	%eax, (%esp)
	movl	$.Lstrglobal_fmbdata_mRawMultibootInfo$print_l58_n2721, 4(%esp)
	calll	Terminal$print
	addl	$16, %esp
	movl	$0, -12(%ebp)
	movl	-8(%ebp), %eax
	subl	$16, %esp
	movl	%eax, (%esp)
	movl	$0, 4(%esp)
	calll	RawMultibootInfo$get_tag
	addl	$16, %esp
	movl	%eax, -16(%ebp)
	jmp	.LBB91_1
	.align	16, 0x90
.LBB91_35:                              # %if_fmbdata_mRawMultibootInfo$print_l145_n3136___DONE
                                        #   in Loop: Header=BB91_1 Depth=1
	movl	-16(%ebp), %eax
.LBB91_1:                               # =>This Inner Loop Header: Depth=1
	cmpl	$0, (%eax)
	je	.LBB91_32
# BB#2:                                 # %fmbdata_mRawMultibootInfo$print_l62_n2730___LOOP___HEAD
                                        #   in Loop: Header=BB91_1 Depth=1
	movl	gvar_fin_mu_lu_n8__kterm, %eax
	movl	-12(%ebp), %ecx
	subl	$16, %esp
	movl	%ecx, 4(%esp)
	movl	%eax, (%esp)
	calll	Terminal$printi
	addl	$16, %esp
	movl	gvar_fin_mu_lu_n8__kterm, %eax
	subl	$16, %esp
	movl	%eax, (%esp)
	movl	$.Lstrglobal_fmbdata_mRawMultibootInfo$print_l64_n2741, 4(%esp)
	calll	Terminal$print
	addl	$16, %esp
	movl	-16(%ebp), %eax
	cmpl	$1, (%eax)
	jne	.LBB91_4
# BB#3:                                 # %if_fmbdata_mRawMultibootInfo$print_l66_n2749___SUCC
                                        #   in Loop: Header=BB91_1 Depth=1
	movl	gvar_fin_mu_lu_n8__kterm, %eax
	subl	$16, %esp
	movl	%eax, (%esp)
	movl	$.Lstrglobal_fmbdata_mRawMultibootInfo$print_l67_n2752, 4(%esp)
	calll	Terminal$print
	addl	$16, %esp
	movl	gvar_fin_mu_lu_n8__kterm, %esi
	movl	-16(%ebp), %eax
	subl	$16, %esp
	movl	%eax, (%esp)
	movl	$8, 4(%esp)
	calll	ptr$offset
	addl	$16, %esp
	subl	$16, %esp
	movl	%eax, 4(%esp)
	movl	%esi, (%esp)
	calll	Terminal$print
	addl	$16, %esp
	movl	gvar_fin_mu_lu_n8__kterm, %eax
	subl	$16, %esp
	movl	%eax, (%esp)
	movl	$.Lstrglobal_fmbdata_mRawMultibootInfo$print_l69_n2764, 4(%esp)
	jmp	.LBB91_29
	.align	16, 0x90
.LBB91_4:                               # %if_fmbdata_mRawMultibootInfo$print_l66_n2749___FAIL
                                        #   in Loop: Header=BB91_1 Depth=1
	movl	-16(%ebp), %eax
	cmpl	$2, (%eax)
	jne	.LBB91_6
# BB#5:                                 # %if_fmbdata_mRawMultibootInfo$print_l66_n2772___SUCC
                                        #   in Loop: Header=BB91_1 Depth=1
	movl	gvar_fin_mu_lu_n8__kterm, %eax
	subl	$16, %esp
	movl	%eax, (%esp)
	movl	$.Lstrglobal_fmbdata_mRawMultibootInfo$print_l71_n2775, 4(%esp)
	calll	Terminal$print
	addl	$16, %esp
	movl	gvar_fin_mu_lu_n8__kterm, %esi
	movl	-16(%ebp), %eax
	subl	$16, %esp
	movl	%eax, (%esp)
	movl	$8, 4(%esp)
	calll	ptr$offset
	addl	$16, %esp
	subl	$16, %esp
	movl	%eax, 4(%esp)
	movl	%esi, (%esp)
	calll	Terminal$print
	addl	$16, %esp
	movl	gvar_fin_mu_lu_n8__kterm, %eax
	subl	$16, %esp
	movl	%eax, (%esp)
	movl	$.Lstrglobal_fmbdata_mRawMultibootInfo$print_l73_n2787, 4(%esp)
	jmp	.LBB91_29
.LBB91_6:                               # %if_fmbdata_mRawMultibootInfo$print_l66_n2772___FAIL
                                        #   in Loop: Header=BB91_1 Depth=1
	movl	-16(%ebp), %eax
	cmpl	$3, (%eax)
	jne	.LBB91_8
# BB#7:                                 # %if_fmbdata_mRawMultibootInfo$print_l66_n2795___SUCC
                                        #   in Loop: Header=BB91_1 Depth=1
	movl	gvar_fin_mu_lu_n8__kterm, %eax
	subl	$16, %esp
	movl	%eax, (%esp)
	movl	$.Lstrglobal_fmbdata_mRawMultibootInfo$print_l75_n2798, 4(%esp)
	calll	Terminal$print
	addl	$16, %esp
	movl	gvar_fin_mu_lu_n8__kterm, %esi
	movl	-16(%ebp), %eax
	subl	$16, %esp
	movl	%eax, (%esp)
	calll	MBModuleTag$get_args
	addl	$16, %esp
	subl	$16, %esp
	movl	%eax, 4(%esp)
	movl	%esi, (%esp)
	.align	16, 0x90
.LBB91_29:                              # %if_fmbdata_mRawMultibootInfo$print_l66_n2749___DONE
                                        #   in Loop: Header=BB91_1 Depth=1
	calll	Terminal$print
.LBB91_30:                              # %if_fmbdata_mRawMultibootInfo$print_l66_n2749___DONE
                                        #   in Loop: Header=BB91_1 Depth=1
	addl	$16, %esp
	movl	gvar_fin_mu_lu_n8__kterm, %eax
	subl	$16, %esp
	movl	%eax, (%esp)
	movl	$.Lstrglobal_fmbdata_mRawMultibootInfo$print_l130_n3081, 4(%esp)
	calll	Terminal$print
	addl	$16, %esp
	movl	gvar_fin_mu_lu_n8__kterm, %eax
	movl	-16(%ebp), %ecx
	movl	(%ecx), %ecx
	subl	$16, %esp
	movl	%ecx, 4(%esp)
	movl	%eax, (%esp)
	calll	Terminal$printi
	addl	$16, %esp
	movl	gvar_fin_mu_lu_n8__kterm, %eax
	subl	$16, %esp
	movl	%eax, (%esp)
	movl	$.Lstrglobal_fmbdata_mRawMultibootInfo$print_l132_n3091, 4(%esp)
	calll	Terminal$print
	addl	$16, %esp
	movl	gvar_fin_mu_lu_n8__kterm, %eax
	movl	-16(%ebp), %ecx
	movl	4(%ecx), %ecx
	subl	$16, %esp
	movl	%ecx, 4(%esp)
	movl	%eax, (%esp)
	calll	Terminal$printi
	addl	$16, %esp
	movl	gvar_fin_mu_lu_n8__kterm, %eax
	subl	$16, %esp
	movl	%eax, (%esp)
	movl	$.Lstrglobal_fmbdata_mRawMultibootInfo$print_l134_n3101, 4(%esp)
	calll	Terminal$print
	addl	$16, %esp
	movl	gvar_fin_mu_lu_n8__kterm, %eax
	movl	-16(%ebp), %ecx
	subl	$16, %esp
	movl	%ecx, 4(%esp)
	movl	%eax, (%esp)
	calll	Terminal$dumphexi
	addl	$16, %esp
	movl	gvar_fin_mu_lu_n8__kterm, %eax
	subl	$16, %esp
	movl	%eax, (%esp)
	movl	$.Lstrglobal_fmbdata_mRawMultibootInfo$print_l136_n3111, 4(%esp)
	calll	Terminal$print
	addl	$16, %esp
	movl	-12(%ebp), %eax
	incl	%eax
	movl	%eax, -12(%ebp)
	movl	-8(%ebp), %ecx
	subl	$16, %esp
	movl	%eax, 4(%esp)
	movl	%ecx, (%esp)
	calll	RawMultibootInfo$get_tag
	addl	$16, %esp
	movl	%eax, -16(%ebp)
	testl	%eax, %eax
	je	.LBB91_31
# BB#33:                                # %if_fmbdata_mRawMultibootInfo$print_l140_n3125___DONE
                                        #   in Loop: Header=BB91_1 Depth=1
	movl	-16(%ebp), %eax
	cmpl	$0, (%eax)
	jne	.LBB91_35
# BB#34:                                # %if_fmbdata_mRawMultibootInfo$print_l145_n3136___SUCC
                                        #   in Loop: Header=BB91_1 Depth=1
	movl	gvar_fin_mu_lu_n8__kterm, %eax
	subl	$16, %esp
	movl	%eax, (%esp)
	movl	$.Lstrglobal_fmbdata_mRawMultibootInfo$print_l146_n3139, 4(%esp)
	calll	Terminal$print
	addl	$16, %esp
	jmp	.LBB91_35
.LBB91_8:                               # %if_fmbdata_mRawMultibootInfo$print_l66_n2795___FAIL
                                        #   in Loop: Header=BB91_1 Depth=1
	movl	-16(%ebp), %eax
	cmpl	$4, (%eax)
	jne	.LBB91_11
# BB#9:                                 # %if_fmbdata_mRawMultibootInfo$print_l66_n2811___SUCC
                                        #   in Loop: Header=BB91_1 Depth=1
	movl	gvar_fin_mu_lu_n8__kterm, %eax
	subl	$16, %esp
	movl	%eax, (%esp)
	movl	$.Lstrglobal_fmbdata_mRawMultibootInfo$print_l78_n2814, 4(%esp)
	calll	Terminal$print
	addl	$16, %esp
	movl	gvar_fin_mu_lu_n8__kterm, %eax
	movl	-16(%ebp), %ecx
	movl	8(%ecx), %ecx
	subl	$16, %esp
	movl	%ecx, 4(%esp)
	movl	%eax, (%esp)
	calll	Terminal$printi
	addl	$16, %esp
	movl	gvar_fin_mu_lu_n8__kterm, %eax
	subl	$16, %esp
	movl	%eax, (%esp)
	movl	$.Lstrglobal_fmbdata_mRawMultibootInfo$print_l80_n2825, 4(%esp)
	calll	Terminal$print
	addl	$16, %esp
	movl	gvar_fin_mu_lu_n8__kterm, %eax
	movl	-16(%ebp), %ecx
	movl	12(%ecx), %ecx
.LBB91_10:                              # %if_fmbdata_mRawMultibootInfo$print_l66_n2749___DONE
                                        #   in Loop: Header=BB91_1 Depth=1
	subl	$16, %esp
	movl	%ecx, 4(%esp)
	movl	%eax, (%esp)
	calll	Terminal$printi
	jmp	.LBB91_30
.LBB91_11:                              # %if_fmbdata_mRawMultibootInfo$print_l66_n2811___FAIL
                                        #   in Loop: Header=BB91_1 Depth=1
	movl	-16(%ebp), %eax
	cmpl	$5, (%eax)
	jne	.LBB91_13
# BB#12:                                # %if_fmbdata_mRawMultibootInfo$print_l66_n2839___SUCC
                                        #   in Loop: Header=BB91_1 Depth=1
	movl	gvar_fin_mu_lu_n8__kterm, %eax
	subl	$16, %esp
	movl	%eax, (%esp)
	movl	$.Lstrglobal_fmbdata_mRawMultibootInfo$print_l83_n2842, 4(%esp)
	calll	Terminal$print
	addl	$16, %esp
	movl	gvar_fin_mu_lu_n8__kterm, %eax
	movl	-16(%ebp), %ecx
	movl	8(%ecx), %ecx
	subl	$16, %esp
	movl	%ecx, 4(%esp)
	movl	%eax, (%esp)
	movl	$2, 8(%esp)
	calll	Terminal$dumphex
	addl	$16, %esp
	movl	gvar_fin_mu_lu_n8__kterm, %eax
	subl	$16, %esp
	movl	%eax, (%esp)
	movl	$.Lstrglobal_fmbdata_mRawMultibootInfo$print_l85_n2854, 4(%esp)
	calll	Terminal$print
	addl	$16, %esp
	movl	gvar_fin_mu_lu_n8__kterm, %eax
	movl	-16(%ebp), %ecx
	movl	12(%ecx), %ecx
	subl	$16, %esp
	movl	%ecx, 4(%esp)
	movl	%eax, (%esp)
	movl	$2, 8(%esp)
	calll	Terminal$dumphex
	addl	$16, %esp
	movl	gvar_fin_mu_lu_n8__kterm, %eax
	subl	$16, %esp
	movl	%eax, (%esp)
	movl	$.Lstrglobal_fmbdata_mRawMultibootInfo$print_l87_n2866, 4(%esp)
	calll	Terminal$print
	addl	$16, %esp
	movl	gvar_fin_mu_lu_n8__kterm, %eax
	movl	-16(%ebp), %ecx
	movl	16(%ecx), %ecx
	subl	$16, %esp
	movl	%ecx, 4(%esp)
	movl	%eax, (%esp)
	movl	$2, 8(%esp)
	calll	Terminal$dumphex
	jmp	.LBB91_30
.LBB91_13:                              # %if_fmbdata_mRawMultibootInfo$print_l66_n2839___FAIL
                                        #   in Loop: Header=BB91_1 Depth=1
	movl	-16(%ebp), %eax
	cmpl	$6, (%eax)
	jne	.LBB91_15
# BB#14:                                # %if_fmbdata_mRawMultibootInfo$print_l66_n2881___SUCC
                                        #   in Loop: Header=BB91_1 Depth=1
	movl	gvar_fin_mu_lu_n8__kterm, %eax
	subl	$16, %esp
	movl	%eax, (%esp)
	movl	$.Lstrglobal_fmbdata_mRawMultibootInfo$print_l90_n2884, 4(%esp)
	calll	Terminal$print
	addl	$16, %esp
	movl	gvar_fin_mu_lu_n8__kterm, %eax
	movl	-16(%ebp), %ecx
	movl	8(%ecx), %ecx
	subl	$16, %esp
	movl	%ecx, 4(%esp)
	movl	%eax, (%esp)
	calll	Terminal$printi
	addl	$16, %esp
	movl	gvar_fin_mu_lu_n8__kterm, %eax
	subl	$16, %esp
	movl	%eax, (%esp)
	movl	$.Lstrglobal_fmbdata_mRawMultibootInfo$print_l92_n2895, 4(%esp)
	calll	Terminal$print
	addl	$16, %esp
	movl	gvar_fin_mu_lu_n8__kterm, %eax
	movl	-16(%ebp), %ecx
	movl	12(%ecx), %ecx
	subl	$16, %esp
	movl	%ecx, 4(%esp)
	movl	%eax, (%esp)
	calll	Terminal$printi
	addl	$16, %esp
	movl	gvar_fin_mu_lu_n8__kterm, %eax
	subl	$16, %esp
	movl	%eax, (%esp)
	movl	$.Lstrglobal_fmbdata_mRawMultibootInfo$print_l94_n2906, 4(%esp)
	calll	Terminal$print
	addl	$16, %esp
	movl	gvar_fin_mu_lu_n8__kterm, %ecx
	movl	-16(%ebp), %esi
	movl	4(%esi), %eax
	cltd
	idivl	8(%esi)
	subl	$16, %esp
	movl	%eax, 4(%esp)
	movl	%ecx, (%esp)
	calll	Terminal$printi
	addl	$16, %esp
	movl	-16(%ebp), %eax
	subl	$16, %esp
	movl	%eax, (%esp)
	calll	MBMMAPMemTag$print
	jmp	.LBB91_30
.LBB91_15:                              # %if_fmbdata_mRawMultibootInfo$print_l66_n2881___FAIL
                                        #   in Loop: Header=BB91_1 Depth=1
	movl	-16(%ebp), %eax
	cmpl	$7, (%eax)
	jne	.LBB91_17
# BB#16:                                # %if_fmbdata_mRawMultibootInfo$print_l66_n2927___SUCC
                                        #   in Loop: Header=BB91_1 Depth=1
	movl	gvar_fin_mu_lu_n8__kterm, %eax
	subl	$16, %esp
	movl	%eax, (%esp)
	movl	$.Lstrglobal_fmbdata_mRawMultibootInfo$print_l98_n2930, 4(%esp)
	calll	Terminal$print
	addl	$16, %esp
	movl	-16(%ebp), %eax
	subl	$16, %esp
	movl	%eax, (%esp)
	movl	$16, 4(%esp)
	calll	ptr$offset
	addl	$16, %esp
	subl	$16, %esp
	movl	%eax, (%esp)
	calll	RawVBEControllerInfo$print
	addl	$16, %esp
	movl	gvar_fin_mu_lu_n8__kterm, %eax
	subl	$16, %esp
	movl	%eax, (%esp)
	movl	$.Lstrglobal_fmbdata_mRawMultibootInfo$print_l100_n2941, 4(%esp)
	calll	Terminal$print
	addl	$16, %esp
	movl	-16(%ebp), %eax
	subl	$16, %esp
	movl	%eax, (%esp)
	movl	$528, 4(%esp)           # imm = 0x210
	calll	ptr$offset
	addl	$16, %esp
	subl	$16, %esp
	movl	%eax, (%esp)
	calll	RawVBEModeInfo$print
	jmp	.LBB91_30
.LBB91_17:                              # %if_fmbdata_mRawMultibootInfo$print_l66_n2927___FAIL
                                        #   in Loop: Header=BB91_1 Depth=1
	movl	-16(%ebp), %eax
	cmpl	$8, (%eax)
	jne	.LBB91_19
# BB#18:                                # %if_fmbdata_mRawMultibootInfo$print_l66_n2957___SUCC
                                        #   in Loop: Header=BB91_1 Depth=1
	movl	%esp, %esi
	leal	-16(%esi), %eax
	movl	%eax, %esp
	movl	-16(%ebp), %eax
	movl	%eax, -16(%esi)
	movl	gvar_fin_mu_lu_n8__kterm, %eax
	subl	$16, %esp
	movl	%eax, (%esp)
	movl	$.Lstrglobal_fmbdata_mRawMultibootInfo$print_l104_n2963, 4(%esp)
	calll	Terminal$print
	addl	$16, %esp
	movl	gvar_fin_mu_lu_n8__kterm, %eax
	movl	-16(%esi), %ecx
	movl	8(%ecx), %ecx
	subl	$16, %esp
	movl	%ecx, 4(%esp)
	movl	%eax, (%esp)
	calll	Terminal$dumphexi
	addl	$16, %esp
	movl	gvar_fin_mu_lu_n8__kterm, %eax
	subl	$16, %esp
	movl	%eax, (%esp)
	movl	$.Lstrglobal_fmbdata_mRawMultibootInfo$print_l106_n2974, 4(%esp)
	calll	Terminal$print
	addl	$16, %esp
	movl	gvar_fin_mu_lu_n8__kterm, %eax
	movl	-16(%esi), %ecx
	movl	16(%ecx), %ecx
	subl	$16, %esp
	movl	%ecx, 4(%esp)
	movl	%eax, (%esp)
	calll	Terminal$printi
	addl	$16, %esp
	movl	gvar_fin_mu_lu_n8__kterm, %eax
	subl	$16, %esp
	movl	%eax, (%esp)
	movl	$.Lstrglobal_fmbdata_mRawMultibootInfo$print_l108_n2984, 4(%esp)
	calll	Terminal$print
	addl	$16, %esp
	movl	gvar_fin_mu_lu_n8__kterm, %eax
	movl	-16(%esi), %ecx
	movl	20(%ecx), %ecx
	subl	$16, %esp
	movl	%ecx, 4(%esp)
	movl	%eax, (%esp)
	calll	Terminal$printi
	addl	$16, %esp
	movl	gvar_fin_mu_lu_n8__kterm, %eax
	subl	$16, %esp
	movl	%eax, (%esp)
	movl	$.Lstrglobal_fmbdata_mRawMultibootInfo$print_l110_n2994, 4(%esp)
	calll	Terminal$print
	addl	$16, %esp
	movl	gvar_fin_mu_lu_n8__kterm, %eax
	movl	-16(%esi), %ecx
	movl	24(%ecx), %ecx
	subl	$16, %esp
	movl	%ecx, 4(%esp)
	movl	%eax, (%esp)
	calll	Terminal$printi
	addl	$16, %esp
	movl	gvar_fin_mu_lu_n8__kterm, %eax
	subl	$16, %esp
	movl	%eax, (%esp)
	movl	$.Lstrglobal_fmbdata_mRawMultibootInfo$print_l112_n3004, 4(%esp)
	calll	Terminal$print
	addl	$16, %esp
	movl	gvar_fin_mu_lu_n8__kterm, %eax
	movl	-16(%esi), %ecx
	movzbl	28(%ecx), %ecx
	subl	$16, %esp
	movl	%ecx, 4(%esp)
	movl	%eax, (%esp)
	calll	Terminal$printi
	addl	$16, %esp
	movl	gvar_fin_mu_lu_n8__kterm, %eax
	subl	$16, %esp
	movl	%eax, (%esp)
	movl	$.Lstrglobal_fmbdata_mRawMultibootInfo$print_l114_n3015, 4(%esp)
	calll	Terminal$print
	addl	$16, %esp
	movl	gvar_fin_mu_lu_n8__kterm, %eax
	movl	-16(%esi), %ecx
	movzbl	29(%ecx), %ecx
	jmp	.LBB91_10
.LBB91_19:                              # %if_fmbdata_mRawMultibootInfo$print_l66_n2957___FAIL
                                        #   in Loop: Header=BB91_1 Depth=1
	movl	-16(%ebp), %eax
	cmpl	$10, (%eax)
	jne	.LBB91_21
# BB#20:                                # %if_fmbdata_mRawMultibootInfo$print_l66_n3029___SUCC
                                        #   in Loop: Header=BB91_1 Depth=1
	movl	gvar_fin_mu_lu_n8__kterm, %eax
	subl	$16, %esp
	movl	%eax, (%esp)
	movl	$.Lstrglobal_fmbdata_mRawMultibootInfo$print_l117_n3032, 4(%esp)
	jmp	.LBB91_29
.LBB91_21:                              # %if_fmbdata_mRawMultibootInfo$print_l66_n3029___FAIL
                                        #   in Loop: Header=BB91_1 Depth=1
	movl	-16(%ebp), %eax
	cmpl	$14, (%eax)
	jne	.LBB91_24
# BB#22:                                # %if_fmbdata_mRawMultibootInfo$print_l66_n3040___SUCC
                                        #   in Loop: Header=BB91_1 Depth=1
	movl	gvar_fin_mu_lu_n8__kterm, %eax
	subl	$16, %esp
	movl	%eax, (%esp)
	movl	$.Lstrglobal_fmbdata_mRawMultibootInfo$print_l119_n3043, 4(%esp)
	jmp	.LBB91_23
.LBB91_24:                              # %if_fmbdata_mRawMultibootInfo$print_l66_n3040___FAIL
                                        #   in Loop: Header=BB91_1 Depth=1
	movl	-16(%ebp), %eax
	cmpl	$15, (%eax)
	jne	.LBB91_26
# BB#25:                                # %if_fmbdata_mRawMultibootInfo$print_l66_n3054___SUCC
                                        #   in Loop: Header=BB91_1 Depth=1
	movl	gvar_fin_mu_lu_n8__kterm, %eax
	subl	$16, %esp
	movl	%eax, (%esp)
	movl	$.Lstrglobal_fmbdata_mRawMultibootInfo$print_l122_n3057, 4(%esp)
.LBB91_23:                              # %if_fmbdata_mRawMultibootInfo$print_l66_n2749___DONE
                                        #   in Loop: Header=BB91_1 Depth=1
	calll	Terminal$print
	addl	$16, %esp
	movl	-16(%ebp), %eax
	subl	$16, %esp
	movl	%eax, (%esp)
	calll	MBRSDP1Tag$printOEM
	jmp	.LBB91_30
.LBB91_26:                              # %if_fmbdata_mRawMultibootInfo$print_l66_n3054___FAIL
                                        #   in Loop: Header=BB91_1 Depth=1
	movl	-16(%ebp), %eax
	cmpl	$16, (%eax)
	jne	.LBB91_28
# BB#27:                                # %if_fmbdata_mRawMultibootInfo$print_l66_n3068___SUCC
                                        #   in Loop: Header=BB91_1 Depth=1
	movl	gvar_fin_mu_lu_n8__kterm, %eax
	subl	$16, %esp
	movl	%eax, (%esp)
	movl	$.Lstrglobal_fmbdata_mRawMultibootInfo$print_l125_n3071, 4(%esp)
	jmp	.LBB91_29
.LBB91_28:                              # %if_fmbdata_mRawMultibootInfo$print_l66_n3068___FAIL
                                        #   in Loop: Header=BB91_1 Depth=1
	movl	gvar_fin_mu_lu_n8__kterm, %eax
	subl	$16, %esp
	movl	%eax, (%esp)
	movl	$.Lstrglobal_fmbdata_mRawMultibootInfo$print_l127_n3076, 4(%esp)
	jmp	.LBB91_29
.LBB91_31:                              # %if_fmbdata_mRawMultibootInfo$print_l140_n3125___SUCC
	movl	gvar_fin_mu_lu_n8__kterm, %eax
	subl	$16, %esp
	movl	%eax, (%esp)
	movl	$.Lstrglobal_fmbdata_mRawMultibootInfo$print_l141_n3128, 4(%esp)
	calll	Terminal$print
.LBB91_32:                              # %fmbdata_mRawMultibootInfo$print_l62_n2730___LOOP___END
	leal	-4(%ebp), %esp
	popl	%esi
	popl	%ebp
	retl
.Ltmp245:
	.size	RawMultibootInfo$print, .Ltmp245-RawMultibootInfo$print
	.cfi_endproc

	.globl	MBMMAPMemTag$print
	.align	16, 0x90
	.type	MBMMAPMemTag$print,@function
MBMMAPMemTag$print:                     # @"MBMMAPMemTag$print"
	.cfi_startproc
# BB#0:
	subl	$28, %esp
.Ltmp246:
	.cfi_def_cfa_offset 32
	movl	32(%esp), %ecx
	movl	%ecx, 24(%esp)
	movl	4(%ecx), %eax
	addl	$-8, %eax
	cltd
	idivl	8(%ecx)
	movl	%eax, 20(%esp)
	movl	$0, 16(%esp)
	cmpl	$0, 20(%esp)
	jle	.LBB92_2
	.align	16, 0x90
.LBB92_1:                               # %fmbdata_mMBMMAPMemTag$print_l176_n3161___LOOP___HEAD
                                        # =>This Inner Loop Header: Depth=1
	movl	24(%esp), %eax
	movl	8(%eax), %ecx
	imull	16(%esp), %ecx
	addl	$16, %ecx
	movl	%ecx, 4(%esp)
	movl	%eax, (%esp)
	calll	ptr$offset
	movl	%eax, 12(%esp)
	movl	gvar_fin_mu_lu_n8__kterm, %eax
	movl	%eax, (%esp)
	movl	$.Lstrglobal_fmbdata_mMBMMAPMemTag$print_l178_n3178, 4(%esp)
	calll	Terminal$print
	movl	gvar_fin_mu_lu_n8__kterm, %eax
	movl	16(%esp), %ecx
	movl	%ecx, 4(%esp)
	movl	%eax, (%esp)
	calll	Terminal$printi
	movl	gvar_fin_mu_lu_n8__kterm, %eax
	movl	%eax, (%esp)
	movl	$.Lstrglobal_fmbdata_mMBMMAPMemTag$print_l180_n3186, 4(%esp)
	calll	Terminal$print
	movl	gvar_fin_mu_lu_n8__kterm, %eax
	movl	12(%esp), %ecx
	movl	16(%ecx), %ecx
	movl	%ecx, 4(%esp)
	movl	%eax, (%esp)
	calll	Terminal$printi
	movl	gvar_fin_mu_lu_n8__kterm, %eax
	movl	%eax, (%esp)
	movl	$.Lstrglobal_fmbdata_mMBMMAPMemTag$print_l182_n3196, 4(%esp)
	calll	Terminal$print
	movl	gvar_fin_mu_lu_n8__kterm, %eax
	movl	12(%esp), %ecx
	movl	(%ecx), %ecx
	movl	%ecx, 4(%esp)
	movl	%eax, (%esp)
	calll	Terminal$dumphexi
	movl	gvar_fin_mu_lu_n8__kterm, %eax
	movl	%eax, (%esp)
	movl	$.Lstrglobal_fmbdata_mMBMMAPMemTag$print_l184_n3207, 4(%esp)
	calll	Terminal$print
	movl	gvar_fin_mu_lu_n8__kterm, %eax
	movl	12(%esp), %ecx
	movl	8(%ecx), %ecx
	movl	%ecx, 4(%esp)
	movl	%eax, (%esp)
	calll	Terminal$dumphexi
	movl	16(%esp), %eax
	incl	%eax
	movl	%eax, 16(%esp)
	cmpl	20(%esp), %eax
	jl	.LBB92_1
.LBB92_2:                               # %fmbdata_mMBMMAPMemTag$print_l176_n3161___LOOP___END
	addl	$28, %esp
	retl
.Ltmp247:
	.size	MBMMAPMemTag$print, .Ltmp247-MBMMAPMemTag$print
	.cfi_endproc

	.globl	MBModuleTag$get_args
	.align	16, 0x90
	.type	MBModuleTag$get_args,@function
MBModuleTag$get_args:                   # @"MBModuleTag$get_args"
	.cfi_startproc
# BB#0:
	subl	$12, %esp
.Ltmp248:
	.cfi_def_cfa_offset 16
	movl	16(%esp), %eax
	movl	%eax, 8(%esp)
	movl	%eax, (%esp)
	movl	$16, 4(%esp)
	calll	ptr$offset
	addl	$12, %esp
	retl
.Ltmp249:
	.size	MBModuleTag$get_args, .Ltmp249-MBModuleTag$get_args
	.cfi_endproc

	.globl	MBModuleTag$get_addr
	.align	16, 0x90
	.type	MBModuleTag$get_addr,@function
MBModuleTag$get_addr:                   # @"MBModuleTag$get_addr"
	.cfi_startproc
# BB#0:
	pushl	%eax
.Ltmp250:
	.cfi_def_cfa_offset 8
	movl	8(%esp), %eax
	movl	%eax, (%esp)
	movl	8(%eax), %eax
	addl	gvar_fin_mu_lu_n9__base_vma, %eax
	popl	%edx
	retl
.Ltmp251:
	.size	MBModuleTag$get_addr, .Ltmp251-MBModuleTag$get_addr
	.cfi_endproc

	.globl	MBRSDP1Tag$printOEM
	.align	16, 0x90
	.type	MBRSDP1Tag$printOEM,@function
MBRSDP1Tag$printOEM:                    # @"MBRSDP1Tag$printOEM"
	.cfi_startproc
# BB#0:
	subl	$12, %esp
.Ltmp252:
	.cfi_def_cfa_offset 16
	movl	16(%esp), %eax
	movl	%eax, 8(%esp)
	movl	gvar_fin_mu_lu_n8__kterm, %ecx
	movzbl	17(%eax), %eax
	movl	%eax, 4(%esp)
	movl	%ecx, (%esp)
	calll	Terminal$putchar
	movl	gvar_fin_mu_lu_n8__kterm, %eax
	movl	8(%esp), %ecx
	movzbl	18(%ecx), %ecx
	movl	%ecx, 4(%esp)
	movl	%eax, (%esp)
	calll	Terminal$putchar
	movl	gvar_fin_mu_lu_n8__kterm, %eax
	movl	8(%esp), %ecx
	movzbl	19(%ecx), %ecx
	movl	%ecx, 4(%esp)
	movl	%eax, (%esp)
	calll	Terminal$putchar
	movl	gvar_fin_mu_lu_n8__kterm, %eax
	movl	8(%esp), %ecx
	movzbl	20(%ecx), %ecx
	movl	%ecx, 4(%esp)
	movl	%eax, (%esp)
	calll	Terminal$putchar
	movl	gvar_fin_mu_lu_n8__kterm, %eax
	movl	8(%esp), %ecx
	movzbl	21(%ecx), %ecx
	movl	%ecx, 4(%esp)
	movl	%eax, (%esp)
	calll	Terminal$putchar
	movl	gvar_fin_mu_lu_n8__kterm, %eax
	movl	8(%esp), %ecx
	movzbl	22(%ecx), %ecx
	movl	%ecx, 4(%esp)
	movl	%eax, (%esp)
	calll	Terminal$putchar
	addl	$12, %esp
	retl
.Ltmp253:
	.size	MBRSDP1Tag$printOEM, .Ltmp253-MBRSDP1Tag$printOEM
	.cfi_endproc

	.globl	MultibootModuleInfo$$new
	.align	16, 0x90
	.type	MultibootModuleInfo$$new,@function
MultibootModuleInfo$$new:               # @"MultibootModuleInfo$$new"
	.cfi_startproc
# BB#0:
	pushl	%esi
.Ltmp254:
	.cfi_def_cfa_offset 8
	subl	$24, %esp
.Ltmp255:
	.cfi_def_cfa_offset 32
.Ltmp256:
	.cfi_offset %esi, -8
	movl	32(%esp), %eax
	movl	%eax, 20(%esp)
	movl	$28, (%esp)
	calll	malloc
	movl	%eax, %esi
	movl	%esi, 16(%esp)
	movl	20(%esp), %eax
	movl	%eax, (%esp)
	calll	MBModuleTag$get_args
	movl	%eax, (%esi)
	movl	16(%esp), %esi
	movl	20(%esp), %eax
	movl	%eax, (%esp)
	calll	MBModuleTag$get_addr
	movl	%eax, 4(%esi)
	movl	16(%esp), %eax
	movl	20(%esp), %ecx
	movl	12(%ecx), %edx
	subl	8(%ecx), %edx
	movl	%edx, 8(%eax)
	movl	16(%esp), %eax
	movl	$0, 12(%eax)
	movl	16(%esp), %eax
	addl	$24, %esp
	popl	%esi
	retl
.Ltmp257:
	.size	MultibootModuleInfo$$new, .Ltmp257-MultibootModuleInfo$$new
	.cfi_endproc

	.globl	MultibootInfo$$load
	.align	16, 0x90
	.type	MultibootInfo$$load,@function
MultibootInfo$$load:                    # @"MultibootInfo$$load"
	.cfi_startproc
# BB#0:
	pushl	%ebp
.Ltmp258:
	.cfi_def_cfa_offset 8
.Ltmp259:
	.cfi_offset %ebp, -8
	movl	%esp, %ebp
.Ltmp260:
	.cfi_def_cfa_register %ebp
	pushl	%ebx
	pushl	%edi
	pushl	%esi
	subl	$28, %esp
.Ltmp261:
	.cfi_offset %esi, -20
.Ltmp262:
	.cfi_offset %edi, -16
.Ltmp263:
	.cfi_offset %ebx, -12
	movl	8(%ebp), %eax
	movl	%eax, -16(%ebp)
	subl	$16, %esp
	movl	$78, (%esp)
	calll	malloc
	addl	$16, %esp
	movl	%eax, -20(%ebp)
	movl	-16(%ebp), %ecx
	movl	%ecx, (%eax)
	movl	-20(%ebp), %esi
	movl	-16(%ebp), %eax
	movl	gvar_fin_mu_lu_n9__base_vma, %ecx
	subl	$16, %esp
	movl	%ecx, 4(%esp)
	movl	%eax, (%esp)
	calll	ptr$offset
	addl	$16, %esp
	movl	%eax, 4(%esi)
	movl	-20(%ebp), %eax
	movb	$0, 8(%eax)
	cmpl	$4194304, -16(%ebp)     # imm = 0x400000
	jge	.LBB97_13
# BB#1:                                 # %if_fmbdata_mMultibootInfo$$load_l284_n3318___DONE
	movl	-20(%ebp), %eax
	movl	4(%eax), %eax
	subl	$16, %esp
	movl	%eax, (%esp)
	movl	$1, 4(%esp)
	calll	RawMultibootInfo$has_type
	addl	$16, %esp
	testb	$1, %al
	je	.LBB97_13
# BB#2:                                 # %if_fmbdata_mMultibootInfo$$load_l288_n3325___SUCC
	movl	-20(%ebp), %eax
	movl	4(%eax), %eax
	subl	$16, %esp
	movl	%eax, (%esp)
	movl	$2, 4(%esp)
	calll	RawMultibootInfo$has_type
	addl	$16, %esp
	testb	$1, %al
	je	.LBB97_13
# BB#3:                                 # %if_fmbdata_mMultibootInfo$$load_l289_n3331___SUCC
	movl	-20(%ebp), %eax
	movl	4(%eax), %eax
	subl	$16, %esp
	movl	%eax, (%esp)
	movl	$5, 4(%esp)
	calll	RawMultibootInfo$has_type
	addl	$16, %esp
	testb	$1, %al
	je	.LBB97_13
# BB#4:                                 # %if_fmbdata_mMultibootInfo$$load_l290_n3337___SUCC
	movl	-20(%ebp), %eax
	movl	4(%eax), %eax
	subl	$16, %esp
	movl	%eax, (%esp)
	movl	$8, 4(%esp)
	calll	RawMultibootInfo$has_type
	addl	$16, %esp
	testb	$1, %al
	je	.LBB97_13
# BB#5:                                 # %if_fmbdata_mMultibootInfo$$load_l291_n3343___SUCC
	movl	-20(%ebp), %eax
	movb	$1, 8(%eax)
	movl	-20(%ebp), %esi
	movl	4(%esi), %eax
	subl	$16, %esp
	movl	%eax, (%esp)
	movl	$1, 4(%esp)
	calll	RawMultibootInfo$get_type
	addl	$16, %esp
	subl	$16, %esp
	movl	%eax, (%esp)
	movl	$8, 4(%esp)
	calll	ptr$offset
	addl	$16, %esp
	movl	%eax, 16(%esi)
	movl	-20(%ebp), %esi
	movl	4(%esi), %eax
	subl	$16, %esp
	movl	%eax, (%esp)
	movl	$2, 4(%esp)
	calll	RawMultibootInfo$get_type
	addl	$16, %esp
	subl	$16, %esp
	movl	%eax, (%esp)
	movl	$8, 4(%esp)
	calll	ptr$offset
	addl	$16, %esp
	movl	%eax, 12(%esi)
	movl	-20(%ebp), %esi
	movl	4(%esi), %eax
	subl	$16, %esp
	movl	%eax, (%esp)
	movl	$5, 4(%esp)
	calll	RawMultibootInfo$get_type
	addl	$16, %esp
	movl	8(%eax), %eax
	movl	%eax, 48(%esi)
	movl	%esp, %esi
	leal	-16(%esi), %eax
	movl	%eax, %esp
	movl	-20(%ebp), %eax
	movl	4(%eax), %eax
	subl	$16, %esp
	movl	%eax, (%esp)
	movl	$8, 4(%esp)
	calll	RawMultibootInfo$get_type
	addl	$16, %esp
	movl	%eax, -16(%esi)
	movl	-20(%ebp), %ecx
	movzbl	29(%eax), %eax
	cmpl	$2, %eax
	sete	20(%ecx)
	movl	-20(%ebp), %eax
	movl	-16(%esi), %ecx
	movl	20(%ecx), %ecx
	movl	%ecx, 24(%eax)
	movl	-20(%ebp), %eax
	movl	-16(%esi), %ecx
	movl	24(%ecx), %ecx
	movl	%ecx, 28(%eax)
	movl	-20(%ebp), %eax
	movl	-16(%esi), %ecx
	movl	16(%ecx), %ecx
	movl	%ecx, 32(%eax)
	movl	-20(%ebp), %eax
	movl	-16(%esi), %ecx
	movzbl	28(%ecx), %ecx
	movl	%ecx, 36(%eax)
	movl	-20(%ebp), %eax
	movl	-16(%esi), %ecx
	movl	8(%ecx), %ecx
	movl	%ecx, 40(%eax)
	movl	-20(%ebp), %edi
	movl	-16(%esi), %eax
	movl	8(%eax), %eax
	movl	gvar_fin_mu_lu_n9__base_vma, %ecx
	subl	$16, %esp
	movl	%ecx, 4(%esp)
	movl	%eax, (%esp)
	calll	ptr$offset
	addl	$16, %esp
	movl	%eax, 44(%edi)
	movl	-20(%ebp), %eax
	movl	$0, 52(%eax)
	movl	%esp, %eax
	leal	-16(%eax), %esi
	movl	%esi, %esp
	movl	$0, -16(%eax)
	movl	%esp, %ebx
	leal	-16(%ebx), %edi
	movl	%edi, %esp
	movl	-20(%ebp), %eax
	movl	4(%eax), %eax
	subl	$16, %esp
	movl	%eax, (%esp)
	movl	$0, 4(%esp)
	calll	RawMultibootInfo$get_tag
	addl	$16, %esp
	movl	%eax, -16(%ebx)
	movl	%esp, %eax
	addl	$-16, %eax
	movl	%eax, -24(%ebp)         # 4-byte Spill
	movl	%eax, %esp
	movl	-16(%ebx), %eax
	jmp	.LBB97_6
.LBB97_12:                              # %if_fmbdata_mMultibootInfo$$load_l313_n3454___DONE
                                        #   in Loop: Header=BB97_6 Depth=1
	movl	(%esi), %eax
	incl	%eax
	movl	%eax, (%esi)
	movl	-20(%ebp), %ecx
	movl	4(%ecx), %ecx
	subl	$16, %esp
	movl	%eax, 4(%esp)
	movl	%ecx, (%esp)
	calll	RawMultibootInfo$get_tag
	addl	$16, %esp
	movl	%eax, (%edi)
.LBB97_6:                               # %if_fmbdata_mMultibootInfo$$load_l291_n3343___SUCC
                                        # =>This Inner Loop Header: Depth=1
	cmpl	$0, (%eax)
	je	.LBB97_13
# BB#7:                                 # %fmbdata_mMultibootInfo$$load_l312_n3443___LOOP___HEAD
                                        #   in Loop: Header=BB97_6 Depth=1
	movl	(%edi), %eax
	cmpl	$3, (%eax)
	jne	.LBB97_12
# BB#8:                                 # %if_fmbdata_mMultibootInfo$$load_l313_n3454___SUCC
                                        #   in Loop: Header=BB97_6 Depth=1
	movl	-20(%ebp), %eax
	cmpl	$0, 52(%eax)
	jne	.LBB97_10
# BB#9:                                 # %if_fmbdata_mMultibootInfo$$load_l314_n3460___SUCC
                                        #   in Loop: Header=BB97_6 Depth=1
	movl	-20(%ebp), %ebx
	movl	(%edi), %eax
	subl	$16, %esp
	movl	%eax, (%esp)
	calll	MultibootModuleInfo$$new
	addl	$16, %esp
	movl	%eax, 56(%ebx)
	movl	-20(%ebp), %eax
	movl	56(%eax), %eax
	movl	-24(%ebp), %ecx         # 4-byte Reload
	movl	%eax, (%ecx)
	jmp	.LBB97_11
.LBB97_10:                              # %if_fmbdata_mMultibootInfo$$load_l314_n3460___FAIL
                                        #   in Loop: Header=BB97_6 Depth=1
	movl	-24(%ebp), %ebx         # 4-byte Reload
	movl	(%ebx), %eax
	movl	%eax, -28(%ebp)         # 4-byte Spill
	movl	(%edi), %eax
	subl	$16, %esp
	movl	%eax, (%esp)
	calll	MultibootModuleInfo$$new
	addl	$16, %esp
	movl	-28(%ebp), %ecx         # 4-byte Reload
	movl	%eax, 12(%ecx)
	movl	(%ebx), %eax
	movl	12(%eax), %eax
	movl	%eax, (%ebx)
.LBB97_11:                              # %if_fmbdata_mMultibootInfo$$load_l314_n3460___DONE
                                        #   in Loop: Header=BB97_6 Depth=1
	movl	-20(%ebp), %eax
	incl	52(%eax)
	jmp	.LBB97_12
.LBB97_13:                              # %if_fmbdata_mMultibootInfo$$load_l284_n3318___SUCC
	movl	-20(%ebp), %eax
	leal	-12(%ebp), %esp
	popl	%esi
	popl	%edi
	popl	%ebx
	popl	%ebp
	retl
.Ltmp264:
	.size	MultibootInfo$$load, .Ltmp264-MultibootInfo$$load
	.cfi_endproc

	.globl	MultibootInfo$get_mod_by_args
	.align	16, 0x90
	.type	MultibootInfo$get_mod_by_args,@function
MultibootInfo$get_mod_by_args:          # @"MultibootInfo$get_mod_by_args"
	.cfi_startproc
# BB#0:
	pushl	%ebp
.Ltmp265:
	.cfi_def_cfa_offset 8
.Ltmp266:
	.cfi_offset %ebp, -8
	movl	%esp, %ebp
.Ltmp267:
	.cfi_def_cfa_register %ebp
	pushl	%edi
	pushl	%esi
	subl	$16, %esp
.Ltmp268:
	.cfi_offset %esi, -16
.Ltmp269:
	.cfi_offset %edi, -12
	movl	12(%ebp), %eax
	movl	8(%ebp), %ecx
	movl	%ecx, -12(%ebp)
	movl	%eax, -16(%ebp)
	movl	-12(%ebp), %eax
	cmpl	$0, 52(%eax)
	je	.LBB98_1
# BB#3:                                 # %if_fmbdata_mMultibootInfo$get_mod_by_args_l335_n3508___DONE
	movl	%esp, %eax
	leal	-16(%eax), %esi
	movl	%esi, %esp
	movl	-12(%ebp), %ecx
	movl	56(%ecx), %ecx
	movl	%ecx, -16(%eax)
	movl	%esp, %eax
	leal	-16(%eax), %edi
	movl	%edi, %esp
	movl	$0, -16(%eax)
	movl	-12(%ebp), %eax
	cmpl	$0, 52(%eax)
	jle	.LBB98_1
	.align	16, 0x90
.LBB98_4:                               # %fmbdata_mMultibootInfo$get_mod_by_args_l341_n3518___LOOP___HEAD
                                        # =>This Inner Loop Header: Depth=1
	movl	(%esi), %eax
	movl	(%eax), %eax
	movl	-16(%ebp), %ecx
	subl	$16, %esp
	movl	%ecx, 4(%esp)
	movl	%eax, (%esp)
	calll	cstr$__eq__
	addl	$16, %esp
	testb	$1, %al
	jne	.LBB98_5
# BB#6:                                 # %if_fmbdata_mMultibootInfo$get_mod_by_args_l342_n3529___DONE
                                        #   in Loop: Header=BB98_4 Depth=1
	incl	(%edi)
	movl	(%esi), %eax
	movl	12(%eax), %eax
	movl	%eax, (%esi)
	movl	(%edi), %eax
	movl	-12(%ebp), %ecx
	cmpl	52(%ecx), %eax
	jl	.LBB98_4
.LBB98_1:                               # %if_fmbdata_mMultibootInfo$get_mod_by_args_l335_n3508___SUCC
	xorl	%eax, %eax
.LBB98_2:                               # %if_fmbdata_mMultibootInfo$get_mod_by_args_l335_n3508___SUCC
	leal	-8(%ebp), %esp
	popl	%esi
	popl	%edi
	popl	%ebp
	retl
.LBB98_5:                               # %if_fmbdata_mMultibootInfo$get_mod_by_args_l342_n3529___SUCC
	movl	(%esi), %eax
	jmp	.LBB98_2
.Ltmp270:
	.size	MultibootInfo$get_mod_by_args, .Ltmp270-MultibootInfo$get_mod_by_args
	.cfi_endproc

	.globl	RawVBEControllerInfo$print
	.align	16, 0x90
	.type	RawVBEControllerInfo$print,@function
RawVBEControllerInfo$print:             # @"RawVBEControllerInfo$print"
	.cfi_startproc
# BB#0:
	subl	$28, %esp
.Ltmp271:
	.cfi_def_cfa_offset 32
	movl	32(%esp), %eax
	movl	%eax, 24(%esp)
	movl	gvar_fin_mu_lu_n8__kterm, %eax
	movl	%eax, (%esp)
	movl	$.Lstrglobal_fmbdata_mRawVBEControllerInfo$print_l374_n3548, 4(%esp)
	calll	Terminal$print
	movl	gvar_fin_mu_lu_n8__kterm, %eax
	movl	24(%esp), %ecx
	movzbl	(%ecx), %ecx
	movl	%ecx, 4(%esp)
	movl	%eax, (%esp)
	calll	Terminal$putchar
	movl	gvar_fin_mu_lu_n8__kterm, %eax
	movl	24(%esp), %ecx
	movzbl	1(%ecx), %ecx
	movl	%ecx, 4(%esp)
	movl	%eax, (%esp)
	calll	Terminal$putchar
	movl	gvar_fin_mu_lu_n8__kterm, %eax
	movl	24(%esp), %ecx
	movzbl	2(%ecx), %ecx
	movl	%ecx, 4(%esp)
	movl	%eax, (%esp)
	calll	Terminal$putchar
	movl	gvar_fin_mu_lu_n8__kterm, %eax
	movl	24(%esp), %ecx
	movzbl	3(%ecx), %ecx
	movl	%ecx, 4(%esp)
	movl	%eax, (%esp)
	calll	Terminal$putchar
	movl	gvar_fin_mu_lu_n8__kterm, %eax
	movl	%eax, (%esp)
	movl	$.Lstrglobal_fmbdata_mRawVBEControllerInfo$print_l379_n3573, 4(%esp)
	calll	Terminal$print
	movl	gvar_fin_mu_lu_n8__kterm, %eax
	movl	24(%esp), %ecx
	movzwl	4(%ecx), %ecx
	movl	%ecx, 4(%esp)
	movl	%eax, (%esp)
	movl	$4, 8(%esp)
	calll	Terminal$dumphex
	movl	gvar_fin_mu_lu_n8__kterm, %eax
	movl	%eax, (%esp)
	movl	$.Lstrglobal_fmbdata_mRawVBEControllerInfo$print_l381_n3585, 4(%esp)
	calll	Terminal$print
	movl	gvar_fin_mu_lu_n8__kterm, %eax
	movl	24(%esp), %ecx
	movzwl	6(%ecx), %ecx
	movl	%ecx, 4(%esp)
	movl	%eax, (%esp)
	movl	$4, 8(%esp)
	calll	Terminal$dumphex
	movl	gvar_fin_mu_lu_n8__kterm, %eax
	movl	%eax, (%esp)
	movl	$.Lstrglobal_fmbdata_mRawVBEControllerInfo$print_l383_n3597, 4(%esp)
	calll	Terminal$print
	movl	gvar_fin_mu_lu_n8__kterm, %eax
	movl	24(%esp), %ecx
	movzwl	8(%ecx), %ecx
	movl	%ecx, 4(%esp)
	movl	%eax, (%esp)
	movl	$4, 8(%esp)
	calll	Terminal$dumphex
	movl	gvar_fin_mu_lu_n8__kterm, %eax
	movl	%eax, (%esp)
	movl	$.Lstrglobal_fmbdata_mRawVBEControllerInfo$print_l385_n3609, 4(%esp)
	calll	Terminal$print
	movl	gvar_fin_mu_lu_n8__kterm, %eax
	movl	24(%esp), %ecx
	movzbl	10(%ecx), %ecx
	movl	%ecx, 4(%esp)
	movl	%eax, (%esp)
	movl	$2, 8(%esp)
	calll	Terminal$dumphex
	movl	gvar_fin_mu_lu_n8__kterm, %eax
	movl	%eax, (%esp)
	movl	$.Lstrglobal_fmbdata_mRawVBEControllerInfo$print_l387_n3621, 4(%esp)
	calll	Terminal$print
	movl	gvar_fin_mu_lu_n8__kterm, %eax
	movl	24(%esp), %ecx
	movzbl	11(%ecx), %ecx
	movl	%ecx, 4(%esp)
	movl	%eax, (%esp)
	movl	$2, 8(%esp)
	calll	Terminal$dumphex
	movl	gvar_fin_mu_lu_n8__kterm, %eax
	movl	%eax, (%esp)
	movl	$.Lstrglobal_fmbdata_mRawVBEControllerInfo$print_l389_n3633, 4(%esp)
	calll	Terminal$print
	movl	gvar_fin_mu_lu_n8__kterm, %eax
	movl	24(%esp), %ecx
	movzbl	12(%ecx), %ecx
	movl	%ecx, 4(%esp)
	movl	%eax, (%esp)
	movl	$2, 8(%esp)
	calll	Terminal$dumphex
	movl	gvar_fin_mu_lu_n8__kterm, %eax
	movl	%eax, (%esp)
	movl	$.Lstrglobal_fmbdata_mRawVBEControllerInfo$print_l391_n3645, 4(%esp)
	calll	Terminal$print
	movl	gvar_fin_mu_lu_n8__kterm, %eax
	movl	24(%esp), %ecx
	movzbl	13(%ecx), %ecx
	movl	%ecx, 4(%esp)
	movl	%eax, (%esp)
	movl	$2, 8(%esp)
	calll	Terminal$dumphex
	movl	gvar_fin_mu_lu_n8__kterm, %eax
	movl	%eax, (%esp)
	movl	$.Lstrglobal_fmbdata_mRawVBEControllerInfo$print_l393_n3657, 4(%esp)
	calll	Terminal$print
	movl	gvar_fin_mu_lu_n8__kterm, %eax
	movl	24(%esp), %ecx
	movzwl	14(%ecx), %ecx
	movl	%ecx, 4(%esp)
	movl	%eax, (%esp)
	movl	$4, 8(%esp)
	calll	Terminal$dumphex
	movl	gvar_fin_mu_lu_n8__kterm, %eax
	movl	%eax, (%esp)
	movl	$.Lstrglobal_fmbdata_mRawVBEControllerInfo$print_l395_n3669, 4(%esp)
	calll	Terminal$print
	movl	gvar_fin_mu_lu_n8__kterm, %eax
	movl	24(%esp), %ecx
	movzwl	16(%ecx), %ecx
	movl	%ecx, 4(%esp)
	movl	%eax, (%esp)
	movl	$4, 8(%esp)
	calll	Terminal$dumphex
	movl	gvar_fin_mu_lu_n8__kterm, %eax
	movl	%eax, (%esp)
	movl	$.Lstrglobal_fmbdata_mRawVBEControllerInfo$print_l397_n3681, 4(%esp)
	calll	Terminal$print
	movl	gvar_fin_mu_lu_n8__kterm, %eax
	movl	24(%esp), %ecx
	movzwl	18(%ecx), %ecx
	movl	%ecx, 4(%esp)
	movl	%eax, (%esp)
	calll	Terminal$printi
	addl	$28, %esp
	retl
.Ltmp272:
	.size	RawVBEControllerInfo$print, .Ltmp272-RawVBEControllerInfo$print
	.cfi_endproc

	.globl	RawVBEModeInfo$print
	.align	16, 0x90
	.type	RawVBEModeInfo$print,@function
RawVBEModeInfo$print:                   # @"RawVBEModeInfo$print"
	.cfi_startproc
# BB#0:
	subl	$28, %esp
.Ltmp273:
	.cfi_def_cfa_offset 32
	movl	32(%esp), %eax
	movl	%eax, 24(%esp)
	movl	gvar_fin_mu_lu_n8__kterm, %eax
	movl	%eax, (%esp)
	movl	$.Lstrglobal_fmbdata_mRawVBEModeInfo$print_l445_n3693, 4(%esp)
	calll	Terminal$print
	movl	gvar_fin_mu_lu_n8__kterm, %eax
	movl	24(%esp), %ecx
	movzwl	(%ecx), %ecx
	movl	%ecx, 4(%esp)
	movl	%eax, (%esp)
	calll	Terminal$dumpbin
	movl	gvar_fin_mu_lu_n8__kterm, %eax
	movl	%eax, (%esp)
	movl	$.Lstrglobal_fmbdata_mRawVBEModeInfo$print_l447_n3704, 4(%esp)
	calll	Terminal$print
	movl	gvar_fin_mu_lu_n8__kterm, %eax
	movl	24(%esp), %ecx
	movzbl	2(%ecx), %ecx
	movl	%ecx, 4(%esp)
	movl	%eax, (%esp)
	movl	$2, 8(%esp)
	calll	Terminal$dumphex
	movl	gvar_fin_mu_lu_n8__kterm, %eax
	movl	%eax, (%esp)
	movl	$.Lstrglobal_fmbdata_mRawVBEModeInfo$print_l449_n3716, 4(%esp)
	calll	Terminal$print
	movl	gvar_fin_mu_lu_n8__kterm, %eax
	movl	24(%esp), %ecx
	movzbl	3(%ecx), %ecx
	movl	%ecx, 4(%esp)
	movl	%eax, (%esp)
	movl	$2, 8(%esp)
	calll	Terminal$dumphex
	movl	gvar_fin_mu_lu_n8__kterm, %eax
	movl	%eax, (%esp)
	movl	$.Lstrglobal_fmbdata_mRawVBEModeInfo$print_l452_n3728, 4(%esp)
	calll	Terminal$print
	movl	gvar_fin_mu_lu_n8__kterm, %eax
	movl	24(%esp), %ecx
	movzwl	18(%ecx), %ecx
	movl	%ecx, 4(%esp)
	movl	%eax, (%esp)
	calll	Terminal$printi
	movl	gvar_fin_mu_lu_n8__kterm, %eax
	movl	%eax, (%esp)
	movl	$.Lstrglobal_fmbdata_mRawVBEModeInfo$print_l454_n3739, 4(%esp)
	calll	Terminal$print
	movl	gvar_fin_mu_lu_n8__kterm, %eax
	movl	24(%esp), %ecx
	movzwl	20(%ecx), %ecx
	movl	%ecx, 4(%esp)
	movl	%eax, (%esp)
	calll	Terminal$printi
	movl	gvar_fin_mu_lu_n8__kterm, %eax
	movl	%eax, (%esp)
	movl	$.Lstrglobal_fmbdata_mRawVBEModeInfo$print_l456_n3750, 4(%esp)
	calll	Terminal$print
	movl	gvar_fin_mu_lu_n8__kterm, %eax
	movl	24(%esp), %ecx
	movzbl	25(%ecx), %ecx
	movl	%ecx, 4(%esp)
	movl	%eax, (%esp)
	calll	Terminal$printi
	movl	gvar_fin_mu_lu_n8__kterm, %eax
	movl	%eax, (%esp)
	movl	$.Lstrglobal_fmbdata_mRawVBEModeInfo$print_l459_n3761, 4(%esp)
	calll	Terminal$print
	movl	gvar_fin_mu_lu_n8__kterm, %eax
	movl	24(%esp), %ecx
	movzwl	16(%ecx), %ecx
	movl	%ecx, 4(%esp)
	movl	%eax, (%esp)
	movl	$4, 8(%esp)
	calll	Terminal$dumphex
	movl	gvar_fin_mu_lu_n8__kterm, %eax
	movl	%eax, (%esp)
	movl	$.Lstrglobal_fmbdata_mRawVBEModeInfo$print_l461_n3773, 4(%esp)
	calll	Terminal$print
	movl	gvar_fin_mu_lu_n8__kterm, %eax
	movl	24(%esp), %ecx
	movl	40(%ecx), %ecx
	movl	%ecx, 4(%esp)
	movl	%eax, (%esp)
	calll	Terminal$dumphexi
	movl	gvar_fin_mu_lu_n8__kterm, %eax
	movl	%eax, (%esp)
	movl	$.Lstrglobal_fmbdata_mRawVBEModeInfo$print_l463_n3783, 4(%esp)
	calll	Terminal$print
	addl	$28, %esp
	retl
.Ltmp274:
	.size	RawVBEModeInfo$print, .Ltmp274-RawVBEModeInfo$print
	.cfi_endproc

	.globl	rcsin
	.align	16, 0x90
	.type	rcsin,@function
rcsin:                                  # @rcsin
	.cfi_startproc
# BB#0:
	pushl	%ebp
.Ltmp275:
	.cfi_def_cfa_offset 8
.Ltmp276:
	.cfi_offset %ebp, -8
	movl	%esp, %ebp
.Ltmp277:
	.cfi_def_cfa_register %ebp
	pushl	%esi
	subl	$20, %esp
.Ltmp278:
	.cfi_offset %esi, -12
	fldl	8(%ebp)
	fstl	-16(%ebp)
	fldz
	fld	%st(0)
	faddl	_the_zero_double
	fucomp	%st(2)
	fstp	%st(1)
	fnstsw	%ax
                                        # kill: AX<def> AX<kill> EAX<def>
                                        # kill: AH<def> AH<kill> EAX<kill>
	sahf
	jbe	.LBB101_2
# BB#1:                                 # %if_fkappsraycasterrcmath_mrcsin_l9_n3791___SUCC
	fsubl	-16(%ebp)
	fstpl	-16(%ebp)
	fldz
.LBB101_2:                              # %if_fkappsraycasterrcmath_mrcsin_l9_n3791___DONE
	fstp	%st(0)
	movl	%esp, %esi
	leal	-16(%esi), %eax
	movl	%eax, %esp
	fldl	-16(%ebp)
	fnstcw	-22(%ebp)
	movw	-22(%ebp), %ax
	movw	$3199, -22(%ebp)        # imm = 0xC7F
	fldcw	-22(%ebp)
	movw	%ax, -22(%ebp)
	fistpl	-20(%ebp)
	fldcw	-22(%ebp)
	movl	-20(%ebp), %ecx
	movl	$-1240768329, %edx      # imm = 0xFFFFFFFFB60B60B7
	movl	%ecx, %eax
	imull	%edx
	addl	%ecx, %edx
	movl	%edx, %eax
	shrl	$31, %eax
	sarl	$8, %edx
	addl	%eax, %edx
	imull	$360, %edx, %eax        # imm = 0x168
	subl	%eax, %ecx
	movl	%ecx, -16(%esi)
	movl	%esp, %eax
	leal	-16(%eax), %ecx
	movl	%ecx, %esp
	movl	$.Lstrglobal_fkappsraycasterrcmath_mrcsin_l13_n3801, -16(%eax)
	movl	-16(%esi), %eax
	shll	$3, %eax
	subl	$16, %esp
	movl	%eax, 4(%esp)
	movl	$.Lstrglobal_fkappsraycasterrcmath_mrcsin_l13_n3801, (%esp)
	calll	ptr$offset
	addl	$16, %esp
	fldl	(%eax)
	leal	-4(%ebp), %esp
	popl	%esi
	popl	%ebp
	retl
.Ltmp279:
	.size	rcsin, .Ltmp279-rcsin
	.cfi_endproc

	.globl	rccos
	.align	16, 0x90
	.type	rccos,@function
rccos:                                  # @rccos
	.cfi_startproc
# BB#0:
	pushl	%ebp
.Ltmp280:
	.cfi_def_cfa_offset 8
.Ltmp281:
	.cfi_offset %ebp, -8
	movl	%esp, %ebp
.Ltmp282:
	.cfi_def_cfa_register %ebp
	pushl	%esi
	subl	$20, %esp
.Ltmp283:
	.cfi_offset %esi, -12
	fldl	8(%ebp)
	fstl	-16(%ebp)
	fldz
	fld	%st(0)
	faddl	_the_zero_double
	fucomp	%st(2)
	fstp	%st(1)
	fnstsw	%ax
                                        # kill: AX<def> AX<kill> EAX<def>
                                        # kill: AH<def> AH<kill> EAX<kill>
	sahf
	jbe	.LBB102_2
# BB#1:                                 # %if_fkappsraycasterrcmath_mrccos_l17_n3817___SUCC
	fsubl	-16(%ebp)
	fstpl	-16(%ebp)
	fldz
.LBB102_2:                              # %if_fkappsraycasterrcmath_mrccos_l17_n3817___DONE
	fstp	%st(0)
	movl	%esp, %esi
	leal	-16(%esi), %eax
	movl	%eax, %esp
	fldl	-16(%ebp)
	fnstcw	-22(%ebp)
	movw	-22(%ebp), %ax
	movw	$3199, -22(%ebp)        # imm = 0xC7F
	fldcw	-22(%ebp)
	movw	%ax, -22(%ebp)
	fistpl	-20(%ebp)
	fldcw	-22(%ebp)
	movl	-20(%ebp), %ecx
	movl	$-1240768329, %edx      # imm = 0xFFFFFFFFB60B60B7
	movl	%ecx, %eax
	imull	%edx
	addl	%ecx, %edx
	movl	%edx, %eax
	shrl	$31, %eax
	sarl	$8, %edx
	addl	%eax, %edx
	imull	$360, %edx, %eax        # imm = 0x168
	subl	%eax, %ecx
	movl	%ecx, -16(%esi)
	movl	%esp, %eax
	leal	-16(%eax), %ecx
	movl	%ecx, %esp
	movl	$.Lstrglobal_fkappsraycasterrcmath_mrccos_l21_n3827, -16(%eax)
	movl	-16(%esi), %eax
	shll	$3, %eax
	subl	$16, %esp
	movl	%eax, 4(%esp)
	movl	$.Lstrglobal_fkappsraycasterrcmath_mrccos_l21_n3827, (%esp)
	calll	ptr$offset
	addl	$16, %esp
	fldl	(%eax)
	leal	-4(%ebp), %esp
	popl	%esi
	popl	%ebp
	retl
.Ltmp284:
	.size	rccos, .Ltmp284-rccos
	.cfi_endproc

	.globl	rcrot_get__
	.align	16, 0x90
	.type	rcrot_get__,@function
rcrot_get__:                            # @rcrot_get__
	.cfi_startproc
# BB#0:
	movl	$.Lstrglobal_fkappsraycasterrcrots_mrcrot_get___l9_n3839, %eax
	retl
.Ltmp285:
	.size	rcrot_get__, .Ltmp285-rcrot_get__
	.cfi_endproc

	.globl	rcrot_get_for
	.align	16, 0x90
	.type	rcrot_get_for,@function
rcrot_get_for:                          # @rcrot_get_for
	.cfi_startproc
# BB#0:
	subl	$12, %esp
.Ltmp286:
	.cfi_def_cfa_offset 16
	movl	16(%esp), %ecx
	movl	%ecx, 8(%esp)
	movl	$-1240768329, %edx      # imm = 0xFFFFFFFFB60B60B7
	movl	%ecx, %eax
	imull	%edx
	addl	%ecx, %edx
	movl	%edx, %eax
	shrl	$31, %eax
	sarl	$8, %edx
	addl	%eax, %edx
	imull	$360, %edx, %eax        # imm = 0x168
	subl	%eax, %ecx
	movl	%ecx, 8(%esp)
	calll	rcrot_get__
	movl	8(%esp), %ecx
	shll	$5, %ecx
	movl	%ecx, 4(%esp)
	movl	%eax, (%esp)
	calll	ptr$offset
	addl	$12, %esp
	retl
.Ltmp287:
	.size	rcrot_get_for, .Ltmp287-rcrot_get_for
	.cfi_endproc

	.globl	get_map
	.align	16, 0x90
	.type	get_map,@function
get_map:                                # @get_map
	.cfi_startproc
# BB#0:
	movl	$.Lstrglobal_fkappsraycasterrcmap_mget_map_l1_n3853, %eax
	retl
.Ltmp288:
	.size	get_map, .Ltmp288-get_map
	.cfi_endproc

	.globl	get_map_w
	.align	16, 0x90
	.type	get_map_w,@function
get_map_w:                              # @get_map_w
	.cfi_startproc
# BB#0:
	movl	$24, %eax
	retl
.Ltmp289:
	.size	get_map_w, .Ltmp289-get_map_w
	.cfi_endproc

	.globl	get_map_h
	.align	16, 0x90
	.type	get_map_h,@function
get_map_h:                              # @get_map_h
	.cfi_startproc
# BB#0:
	movl	$24, %eax
	retl
.Ltmp290:
	.size	get_map_h, .Ltmp290-get_map_h
	.cfi_endproc

	.globl	get_font
	.align	16, 0x90
	.type	get_font,@function
get_font:                               # @get_font
	.cfi_startproc
# BB#0:
	movl	$.Lstrglobal_ffontfont_mget_font_l1_n3858, %eax
	retl
.Ltmp291:
	.size	get_font, .Ltmp291-get_font
	.cfi_endproc

	.globl	get_colors
	.align	16, 0x90
	.type	get_colors,@function
get_colors:                             # @get_colors
	.cfi_startproc
# BB#0:
	movl	$.Lstrglobal_ffontfont_mget_colors_l3_n3861, %eax
	retl
.Ltmp292:
	.size	get_colors, .Ltmp292-get_colors
	.cfi_endproc

	.globl	Framebuffer$$new_hw
	.align	16, 0x90
	.type	Framebuffer$$new_hw,@function
Framebuffer$$new_hw:                    # @"Framebuffer$$new_hw"
	.cfi_startproc
# BB#0:
	pushl	%edi
.Ltmp293:
	.cfi_def_cfa_offset 8
	pushl	%esi
.Ltmp294:
	.cfi_def_cfa_offset 12
	subl	$36, %esp
.Ltmp295:
	.cfi_def_cfa_offset 48
.Ltmp296:
	.cfi_offset %esi, -12
.Ltmp297:
	.cfi_offset %edi, -8
	movl	64(%esp), %eax
	movl	60(%esp), %ecx
	movl	56(%esp), %edx
	movl	52(%esp), %esi
	movl	48(%esp), %edi
	movl	%edi, 32(%esp)
	movl	%esi, 28(%esp)
	movl	%edx, 24(%esp)
	movl	%ecx, 20(%esp)
	movl	%eax, 16(%esp)
	movl	$24, (%esp)
	calll	malloc
	movl	%eax, 12(%esp)
	movl	16(%esp), %ecx
	movl	%ecx, (%eax)
	movl	12(%esp), %eax
	movl	32(%esp), %ecx
	movl	%ecx, 4(%eax)
	movl	12(%esp), %eax
	movl	28(%esp), %ecx
	movl	%ecx, 8(%eax)
	movl	12(%esp), %eax
	movl	24(%esp), %ecx
	movl	%ecx, 12(%eax)
	movl	12(%esp), %eax
	movl	20(%esp), %ecx
	movl	%ecx, 16(%eax)
	movl	12(%esp), %eax
	addl	$36, %esp
	popl	%esi
	popl	%edi
	retl
.Ltmp298:
	.size	Framebuffer$$new_hw, .Ltmp298-Framebuffer$$new_hw
	.cfi_endproc

	.globl	Framebuffer$$new
	.align	16, 0x90
	.type	Framebuffer$$new,@function
Framebuffer$$new:                       # @"Framebuffer$$new"
	.cfi_startproc
# BB#0:
	pushl	%ebp
.Ltmp299:
	.cfi_def_cfa_offset 8
	pushl	%ebx
.Ltmp300:
	.cfi_def_cfa_offset 12
	pushl	%edi
.Ltmp301:
	.cfi_def_cfa_offset 16
	pushl	%esi
.Ltmp302:
	.cfi_def_cfa_offset 20
	subl	$44, %esp
.Ltmp303:
	.cfi_def_cfa_offset 64
.Ltmp304:
	.cfi_offset %esi, -20
.Ltmp305:
	.cfi_offset %edi, -16
.Ltmp306:
	.cfi_offset %ebx, -12
.Ltmp307:
	.cfi_offset %ebp, -8
	movl	76(%esp), %esi
	movl	72(%esp), %eax
	movl	68(%esp), %ecx
	movl	64(%esp), %edx
	movl	%edx, 40(%esp)
	movl	%ecx, 36(%esp)
	movl	%eax, 32(%esp)
	movl	%esi, 28(%esp)
	movl	40(%esp), %edi
	movl	36(%esp), %ebx
	movl	32(%esp), %ebp
	movl	%ebx, %eax
	imull	%esi, %eax
	movl	%eax, (%esp)
	calll	malloc
	movl	%eax, 16(%esp)
	movl	%esi, 12(%esp)
	movl	%ebp, 8(%esp)
	movl	%ebx, 4(%esp)
	movl	%edi, (%esp)
	calll	Framebuffer$$new_hw
	addl	$44, %esp
	popl	%esi
	popl	%edi
	popl	%ebx
	popl	%ebp
	retl
.Ltmp308:
	.size	Framebuffer$$new, .Ltmp308-Framebuffer$$new
	.cfi_endproc

	.globl	Framebuffer$$from_mbinfo
	.align	16, 0x90
	.type	Framebuffer$$from_mbinfo,@function
Framebuffer$$from_mbinfo:               # @"Framebuffer$$from_mbinfo"
	.cfi_startproc
# BB#0:
	pushl	%edi
.Ltmp309:
	.cfi_def_cfa_offset 8
	pushl	%esi
.Ltmp310:
	.cfi_def_cfa_offset 12
	subl	$36, %esp
.Ltmp311:
	.cfi_def_cfa_offset 48
.Ltmp312:
	.cfi_offset %esi, -12
.Ltmp313:
	.cfi_offset %edi, -8
	movl	48(%esp), %eax
	movl	%eax, 32(%esp)
	movl	24(%eax), %ecx
	movl	28(%eax), %edx
	movl	36(%eax), %esi
	movl	%esi, %edi
	sarl	$31, %edi
	shrl	$29, %edi
	addl	%esi, %edi
	sarl	$3, %edi
	movl	32(%eax), %esi
	movl	44(%eax), %eax
	movl	%eax, 16(%esp)
	movl	%esi, 12(%esp)
	movl	%edx, 4(%esp)
	movl	%ecx, (%esp)
	movl	%edi, 8(%esp)
	calll	Framebuffer$$new_hw
	addl	$36, %esp
	popl	%esi
	popl	%edi
	retl
.Ltmp314:
	.size	Framebuffer$$from_mbinfo, .Ltmp314-Framebuffer$$from_mbinfo
	.cfi_endproc

	.globl	Framebuffer$fill
	.align	16, 0x90
	.type	Framebuffer$fill,@function
Framebuffer$fill:                       # @"Framebuffer$fill"
	.cfi_startproc
# BB#0:
	pushl	%esi
.Ltmp315:
	.cfi_def_cfa_offset 8
	subl	$32, %esp
.Ltmp316:
	.cfi_def_cfa_offset 40
.Ltmp317:
	.cfi_offset %esi, -8
	movl	52(%esp), %eax
	movl	48(%esp), %ecx
	movl	44(%esp), %edx
	movl	40(%esp), %esi
	movl	%esi, 28(%esp)
	movl	%edx, 24(%esp)
	movl	%ecx, 20(%esp)
	movl	%eax, 16(%esp)
	movl	$0, 12(%esp)
	movl	28(%esp), %eax
	cmpl	$0, 8(%eax)
	jle	.LBB113_4
	.align	16, 0x90
.LBB113_1:                              # %fframebuffer_mFramebuffer$fill_l31_n3934___LOOP___HEAD
                                        # =>This Loop Header: Depth=1
                                        #     Child Loop BB113_2 Depth 2
	movl	$0, 8(%esp)
	movl	28(%esp), %eax
	cmpl	$0, 4(%eax)
	jle	.LBB113_3
	.align	16, 0x90
.LBB113_2:                              # %fframebuffer_mFramebuffer$fill_l33_n3941___LOOP___HEAD
                                        #   Parent Loop BB113_1 Depth=1
                                        # =>  This Inner Loop Header: Depth=2
	movl	28(%esp), %eax
	movl	(%eax), %ecx
	movl	12(%esp), %edx
	imull	16(%eax), %edx
	movl	8(%esp), %esi
	imull	12(%eax), %esi
	addl	%edx, %esi
	movb	16(%esp), %al
	movb	%al, (%ecx,%esi)
	movl	28(%esp), %eax
	movl	(%eax), %ecx
	movl	12(%esp), %edx
	imull	16(%eax), %edx
	movl	8(%esp), %esi
	imull	12(%eax), %esi
	addl	%edx, %esi
	movb	20(%esp), %al
	movb	%al, 1(%ecx,%esi)
	movl	28(%esp), %eax
	movl	(%eax), %ecx
	movl	12(%esp), %edx
	imull	16(%eax), %edx
	movl	8(%esp), %esi
	imull	12(%eax), %esi
	addl	%edx, %esi
	movb	24(%esp), %al
	movb	%al, 2(%ecx,%esi)
	movl	8(%esp), %eax
	incl	%eax
	movl	%eax, 8(%esp)
	movl	28(%esp), %ecx
	cmpl	4(%ecx), %eax
	jl	.LBB113_2
.LBB113_3:                              # %fframebuffer_mFramebuffer$fill_l33_n3941___LOOP___END
                                        #   in Loop: Header=BB113_1 Depth=1
	movl	12(%esp), %eax
	incl	%eax
	movl	%eax, 12(%esp)
	movl	28(%esp), %ecx
	cmpl	8(%ecx), %eax
	jl	.LBB113_1
.LBB113_4:                              # %fframebuffer_mFramebuffer$fill_l31_n3934___LOOP___END
	addl	$32, %esp
	popl	%esi
	retl
.Ltmp318:
	.size	Framebuffer$fill, .Ltmp318-Framebuffer$fill
	.cfi_endproc

	.globl	Framebuffer$setpx
	.align	16, 0x90
	.type	Framebuffer$setpx,@function
Framebuffer$setpx:                      # @"Framebuffer$setpx"
	.cfi_startproc
# BB#0:
	pushl	%ebx
.Ltmp319:
	.cfi_def_cfa_offset 8
	pushl	%edi
.Ltmp320:
	.cfi_def_cfa_offset 12
	pushl	%esi
.Ltmp321:
	.cfi_def_cfa_offset 16
	subl	$28, %esp
.Ltmp322:
	.cfi_def_cfa_offset 44
.Ltmp323:
	.cfi_offset %esi, -16
.Ltmp324:
	.cfi_offset %edi, -12
.Ltmp325:
	.cfi_offset %ebx, -8
	movl	64(%esp), %eax
	movl	60(%esp), %ecx
	movl	56(%esp), %edx
	movl	52(%esp), %esi
	movl	48(%esp), %edi
	movl	44(%esp), %ebx
	movl	%ebx, 24(%esp)
	movl	%edi, 20(%esp)
	movl	%esi, 16(%esp)
	movl	%edx, 12(%esp)
	movl	%ecx, 8(%esp)
	movl	%eax, 4(%esp)
	movl	16(%esp), %eax
	movl	24(%esp), %ecx
	imull	16(%ecx), %eax
	movl	20(%esp), %edx
	imull	12(%ecx), %edx
	addl	%eax, %edx
	movl	%edx, (%esp)
	movl	24(%esp), %eax
	movl	(%eax), %eax
	movb	4(%esp), %cl
	movb	%cl, (%eax,%edx)
	movl	24(%esp), %eax
	movl	(%eax), %eax
	movl	(%esp), %ecx
	movb	8(%esp), %dl
	movb	%dl, 1(%ecx,%eax)
	movl	24(%esp), %eax
	movl	(%eax), %eax
	movl	(%esp), %ecx
	movb	12(%esp), %dl
	movb	%dl, 2(%ecx,%eax)
	addl	$28, %esp
	popl	%esi
	popl	%edi
	popl	%ebx
	retl
.Ltmp326:
	.size	Framebuffer$setpx, .Ltmp326-Framebuffer$setpx
	.cfi_endproc

	.globl	Framebuffer$fillrect
	.align	16, 0x90
	.type	Framebuffer$fillrect,@function
Framebuffer$fillrect:                   # @"Framebuffer$fillrect"
	.cfi_startproc
# BB#0:
	pushl	%esi
.Ltmp327:
	.cfi_def_cfa_offset 8
	subl	$44, %esp
.Ltmp328:
	.cfi_def_cfa_offset 52
.Ltmp329:
	.cfi_offset %esi, -8
	movl	80(%esp), %eax
	movl	76(%esp), %ecx
	movl	52(%esp), %edx
	movl	%edx, 40(%esp)
	movl	56(%esp), %edx
	movl	%edx, 36(%esp)
	movl	60(%esp), %edx
	movl	%edx, 32(%esp)
	movl	64(%esp), %edx
	movl	%edx, 28(%esp)
	movl	68(%esp), %edx
	movl	%edx, 24(%esp)
	movl	72(%esp), %edx
	movl	%edx, 20(%esp)
	movl	%ecx, 16(%esp)
	movl	%eax, 12(%esp)
	movl	32(%esp), %eax
	movl	40(%esp), %ecx
	imull	16(%ecx), %eax
	movl	36(%esp), %edx
	imull	12(%ecx), %edx
	addl	%eax, %edx
	movl	%edx, 8(%esp)
	movl	$0, 4(%esp)
	cmpl	$0, 24(%esp)
	jle	.LBB115_4
	.align	16, 0x90
.LBB115_1:                              # %fframebuffer_mFramebuffer$fillrect_l54_n4096___LOOP___HEAD
                                        # =>This Loop Header: Depth=1
                                        #     Child Loop BB115_2 Depth 2
	movl	$0, (%esp)
	cmpl	$0, 28(%esp)
	jle	.LBB115_3
	.align	16, 0x90
.LBB115_2:                              # %fframebuffer_mFramebuffer$fillrect_l56_n4101___LOOP___HEAD
                                        #   Parent Loop BB115_1 Depth=1
                                        # =>  This Inner Loop Header: Depth=2
	movl	40(%esp), %eax
	movl	(%eax), %ecx
	movl	4(%esp), %edx
	imull	16(%eax), %edx
	movl	(%esp), %esi
	imull	12(%eax), %esi
	addl	%edx, %esi
	addl	8(%esp), %esi
	movb	12(%esp), %al
	movb	%al, (%ecx,%esi)
	movl	40(%esp), %eax
	movl	(%eax), %ecx
	movl	4(%esp), %edx
	imull	16(%eax), %edx
	movl	(%esp), %esi
	imull	12(%eax), %esi
	addl	%edx, %esi
	addl	8(%esp), %esi
	movb	16(%esp), %al
	movb	%al, 1(%ecx,%esi)
	movl	40(%esp), %eax
	movl	(%eax), %ecx
	movl	4(%esp), %edx
	imull	16(%eax), %edx
	movl	(%esp), %esi
	imull	12(%eax), %esi
	addl	%edx, %esi
	addl	8(%esp), %esi
	movb	20(%esp), %al
	movb	%al, 2(%ecx,%esi)
	movl	(%esp), %eax
	incl	%eax
	movl	%eax, (%esp)
	cmpl	28(%esp), %eax
	jl	.LBB115_2
.LBB115_3:                              # %fframebuffer_mFramebuffer$fillrect_l56_n4101___LOOP___END
                                        #   in Loop: Header=BB115_1 Depth=1
	movl	4(%esp), %eax
	incl	%eax
	movl	%eax, 4(%esp)
	cmpl	24(%esp), %eax
	jl	.LBB115_1
.LBB115_4:                              # %fframebuffer_mFramebuffer$fillrect_l54_n4096___LOOP___END
	addl	$44, %esp
	popl	%esi
	retl
.Ltmp330:
	.size	Framebuffer$fillrect, .Ltmp330-Framebuffer$fillrect
	.cfi_endproc

	.globl	Framebuffer$drawchar
	.align	16, 0x90
	.type	Framebuffer$drawchar,@function
Framebuffer$drawchar:                   # @"Framebuffer$drawchar"
	.cfi_startproc
# BB#0:
	pushl	%esi
.Ltmp331:
	.cfi_def_cfa_offset 8
	subl	$72, %esp
.Ltmp332:
	.cfi_def_cfa_offset 80
.Ltmp333:
	.cfi_offset %esi, -8
	movl	108(%esp), %eax
	movl	104(%esp), %ecx
	movl	80(%esp), %edx
	movl	%edx, 68(%esp)
	movl	84(%esp), %edx
	movl	%edx, 64(%esp)
	movl	88(%esp), %edx
	movl	%edx, 60(%esp)
	movl	92(%esp), %edx
	movl	%edx, 56(%esp)
	movl	96(%esp), %edx
	movl	%edx, 52(%esp)
	movl	100(%esp), %edx
	movl	%edx, 48(%esp)
	movl	%ecx, 44(%esp)
	movl	%eax, 40(%esp)
	movl	60(%esp), %eax
	movl	68(%esp), %ecx
	imull	16(%ecx), %eax
	movl	64(%esp), %edx
	imull	12(%ecx), %edx
	addl	%eax, %edx
	movl	%edx, 36(%esp)
	calll	get_font
	movl	%eax, 32(%esp)
	movl	52(%esp), %eax
	shll	$6, %eax
	movl	%eax, 28(%esp)
	movl	$.Lstrglobal_fframebuffer_mFramebuffer$drawchar_l70_n4216, (%esp)
	calll	cstr$ord
	movb	%al, 27(%esp)
	movl	$0, 20(%esp)
	cmpl	$0, 56(%esp)
	jle	.LBB116_6
	.align	16, 0x90
.LBB116_1:                              # %fframebuffer_mFramebuffer$drawchar_l73_n4222___LOOP___HEAD
                                        # =>This Loop Header: Depth=1
                                        #     Child Loop BB116_2 Depth 2
	movl	$0, 16(%esp)
	cmpl	$0, 56(%esp)
	jle	.LBB116_5
	.align	16, 0x90
.LBB116_2:                              # %fframebuffer_mFramebuffer$drawchar_l75_n4227___LOOP___HEAD
                                        #   Parent Loop BB116_1 Depth=1
                                        # =>  This Inner Loop Header: Depth=2
	movl	32(%esp), %eax
	movl	20(%esp), %ecx
	shll	$3, %ecx
	addl	16(%esp), %ecx
	addl	28(%esp), %ecx
	movzbl	(%eax,%ecx), %eax
	movzbl	27(%esp), %ecx
	cmpl	%ecx, %eax
	jne	.LBB116_4
# BB#3:                                 # %if_fframebuffer_mFramebuffer$drawchar_l76_n4245___SUCC
                                        #   in Loop: Header=BB116_2 Depth=2
	movl	68(%esp), %eax
	movl	(%eax), %ecx
	movl	20(%esp), %edx
	imull	16(%eax), %edx
	movl	16(%esp), %esi
	imull	12(%eax), %esi
	addl	%edx, %esi
	addl	36(%esp), %esi
	movb	40(%esp), %al
	movb	%al, (%ecx,%esi)
	movl	68(%esp), %eax
	movl	(%eax), %ecx
	movl	20(%esp), %edx
	imull	16(%eax), %edx
	movl	16(%esp), %esi
	imull	12(%eax), %esi
	addl	%edx, %esi
	addl	36(%esp), %esi
	movb	44(%esp), %al
	movb	%al, 1(%ecx,%esi)
	movl	68(%esp), %eax
	movl	(%eax), %ecx
	movl	20(%esp), %edx
	imull	16(%eax), %edx
	movl	16(%esp), %esi
	imull	12(%eax), %esi
	addl	%edx, %esi
	addl	36(%esp), %esi
	movb	48(%esp), %al
	movb	%al, 2(%ecx,%esi)
.LBB116_4:                              # %if_fframebuffer_mFramebuffer$drawchar_l76_n4245___DONE
                                        #   in Loop: Header=BB116_2 Depth=2
	movl	16(%esp), %eax
	incl	%eax
	movl	%eax, 16(%esp)
	cmpl	56(%esp), %eax
	jl	.LBB116_2
.LBB116_5:                              # %fframebuffer_mFramebuffer$drawchar_l75_n4227___LOOP___END
                                        #   in Loop: Header=BB116_1 Depth=1
	movl	20(%esp), %eax
	incl	%eax
	movl	%eax, 20(%esp)
	cmpl	56(%esp), %eax
	jl	.LBB116_1
.LBB116_6:                              # %fframebuffer_mFramebuffer$drawchar_l73_n4222___LOOP___END
	addl	$72, %esp
	popl	%esi
	retl
.Ltmp334:
	.size	Framebuffer$drawchar, .Ltmp334-Framebuffer$drawchar
	.cfi_endproc

	.globl	Framebuffer$copyfrom
	.align	16, 0x90
	.type	Framebuffer$copyfrom,@function
Framebuffer$copyfrom:                   # @"Framebuffer$copyfrom"
	.cfi_startproc
# BB#0:
	pushl	%esi
.Ltmp335:
	.cfi_def_cfa_offset 8
	subl	$24, %esp
.Ltmp336:
	.cfi_def_cfa_offset 32
.Ltmp337:
	.cfi_offset %esi, -8
	movl	36(%esp), %eax
	movl	32(%esp), %ecx
	movl	%ecx, 20(%esp)
	movl	%eax, 16(%esp)
	movl	(%eax), %eax
	movl	20(%esp), %ecx
	movl	(%ecx), %edx
	movl	8(%ecx), %esi
	imull	16(%ecx), %esi
	movl	%esi, 8(%esp)
	movl	%edx, 4(%esp)
	movl	%eax, (%esp)
	calll	memcpy32
	addl	$24, %esp
	popl	%esi
	retl
.Ltmp338:
	.size	Framebuffer$copyfrom, .Ltmp338-Framebuffer$copyfrom
	.cfi_endproc

	.section	.rodata.cst8,"aM",@progbits,8
	.align	8
.LCPI118_0:
	.quad	4608236261112822104     # double 1.234
	.section	.rodata.cst4,"aM",@progbits,4
	.align	4
.LCPI118_1:
	.long	1148846080              # float 1000
.LCPI118_2:
	.long	1092616192              # float 10
.LCPI118_3:
	.long	1101004800              # float 20
.LCPI118_4:
	.long	1106247680              # float 30
.LCPI118_5:
	.long	1119092736              # float 90
.LCPI118_6:
	.long	1082130432              # float 4
.LCPI118_7:
	.long	1120403456              # float 100
.LCPI118_8:
	.long	1108344832              # float 36
.LCPI118_9:
	.long	1084227584              # float 5
	.text
	.globl	rc_mtest
	.align	16, 0x90
	.type	rc_mtest,@function
rc_mtest:                               # @rc_mtest
	.cfi_startproc
# BB#0:
	pushl	%esi
.Ltmp339:
	.cfi_def_cfa_offset 8
	subl	$152, %esp
.Ltmp340:
	.cfi_def_cfa_offset 160
.Ltmp341:
	.cfi_offset %esi, -8
	movl	160(%esp), %eax
	movl	%eax, 148(%esp)
	fldl	_the_zero_double
	faddl	.LCPI118_0
	fstpl	136(%esp)
	leal	136(%esp), %eax
	movl	%eax, 132(%esp)
	movl	gvar_fin_mu_lu_n8__kterm, %eax
	movl	%eax, (%esp)
	movl	$.Lstrglobal_fkappsraycasterraycaster_mrc_mtest_l8_n4350, 4(%esp)
	calll	Terminal$print
	movl	gvar_fin_mu_lu_n8__kterm, %eax
	flds	.LCPI118_1
	fstl	40(%esp)                # 8-byte Folded Spill
	faddl	_the_zero_double
	fmull	136(%esp)
	fnstcw	74(%esp)
	movw	74(%esp), %cx
	movw	$3199, 74(%esp)         # imm = 0xC7F
	fldcw	74(%esp)
	movw	%cx, 74(%esp)
	fistpl	76(%esp)
	fldcw	74(%esp)
	movl	76(%esp), %ecx
	movl	%ecx, 4(%esp)
	movl	%eax, (%esp)
	calll	Terminal$printi
	movl	gvar_fin_mu_lu_n8__kterm, %eax
	movl	%eax, (%esp)
	movl	$.Lstrglobal_fkappsraycasterraycaster_mrc_mtest_l10_n4362, 4(%esp)
	calll	Terminal$print
	movl	gvar_fin_mu_lu_n8__kterm, %eax
	movl	132(%esp), %ecx
	movzbl	(%ecx), %ecx
	movl	%ecx, 4(%esp)
	movl	%eax, (%esp)
	calll	Terminal$printi
	movl	gvar_fin_mu_lu_n8__kterm, %eax
	movl	%eax, (%esp)
	movl	$.Lstrglobal_fkappsraycasterraycaster_mrc_mtest_l12_n4376, 4(%esp)
	calll	Terminal$print
	movl	gvar_fin_mu_lu_n8__kterm, %eax
	movl	132(%esp), %ecx
	movzbl	1(%ecx), %ecx
	movl	%ecx, 4(%esp)
	movl	%eax, (%esp)
	calll	Terminal$printi
	movl	gvar_fin_mu_lu_n8__kterm, %eax
	movl	%eax, (%esp)
	movl	$.Lstrglobal_fkappsraycasterraycaster_mrc_mtest_l14_n4390, 4(%esp)
	calll	Terminal$print
	movl	gvar_fin_mu_lu_n8__kterm, %eax
	movl	132(%esp), %ecx
	movzbl	2(%ecx), %ecx
	movl	%ecx, 4(%esp)
	movl	%eax, (%esp)
	calll	Terminal$printi
	movl	gvar_fin_mu_lu_n8__kterm, %eax
	movl	%eax, (%esp)
	movl	$.Lstrglobal_fkappsraycasterraycaster_mrc_mtest_l16_n4404, 4(%esp)
	calll	Terminal$print
	movl	gvar_fin_mu_lu_n8__kterm, %eax
	movl	132(%esp), %ecx
	movzbl	3(%ecx), %ecx
	movl	%ecx, 4(%esp)
	movl	%eax, (%esp)
	calll	Terminal$printi
	movl	gvar_fin_mu_lu_n8__kterm, %eax
	movl	%eax, (%esp)
	movl	$.Lstrglobal_fkappsraycasterraycaster_mrc_mtest_l18_n4418, 4(%esp)
	calll	Terminal$print
	movl	gvar_fin_mu_lu_n8__kterm, %eax
	movl	132(%esp), %ecx
	movzbl	4(%ecx), %ecx
	movl	%ecx, 4(%esp)
	movl	%eax, (%esp)
	calll	Terminal$printi
	movl	gvar_fin_mu_lu_n8__kterm, %eax
	movl	%eax, (%esp)
	movl	$.Lstrglobal_fkappsraycasterraycaster_mrc_mtest_l20_n4432, 4(%esp)
	calll	Terminal$print
	movl	gvar_fin_mu_lu_n8__kterm, %eax
	movl	132(%esp), %ecx
	movzbl	5(%ecx), %ecx
	movl	%ecx, 4(%esp)
	movl	%eax, (%esp)
	calll	Terminal$printi
	movl	gvar_fin_mu_lu_n8__kterm, %eax
	movl	%eax, (%esp)
	movl	$.Lstrglobal_fkappsraycasterraycaster_mrc_mtest_l22_n4446, 4(%esp)
	calll	Terminal$print
	movl	gvar_fin_mu_lu_n8__kterm, %eax
	movl	132(%esp), %ecx
	movzbl	6(%ecx), %ecx
	movl	%ecx, 4(%esp)
	movl	%eax, (%esp)
	calll	Terminal$printi
	movl	gvar_fin_mu_lu_n8__kterm, %eax
	movl	%eax, (%esp)
	movl	$.Lstrglobal_fkappsraycasterraycaster_mrc_mtest_l24_n4460, 4(%esp)
	calll	Terminal$print
	movl	gvar_fin_mu_lu_n8__kterm, %eax
	movl	132(%esp), %ecx
	movzbl	7(%ecx), %ecx
	movl	%ecx, 4(%esp)
	movl	%eax, (%esp)
	calll	Terminal$printi
	movl	gvar_fin_mu_lu_n8__kterm, %eax
	movl	%eax, (%esp)
	movl	$.Lstrglobal_fkappsraycasterraycaster_mrc_mtest_l26_n4474, 4(%esp)
	calll	Terminal$print
	movl	gvar_fin_mu_lu_n8__kterm, %eax
	movl	%eax, (%esp)
	movl	$.Lstrglobal_fkappsraycasterraycaster_mrc_mtest_l28_n4479, 4(%esp)
	calll	Terminal$print
	movl	gvar_fin_mu_lu_n8__kterm, %eax
	fldl	40(%esp)                # 8-byte Folded Reload
	faddl	_the_zero_double
	fmull	136(%esp)
	fnstcw	72(%esp)
	movw	72(%esp), %cx
	movw	$3199, 72(%esp)         # imm = 0xC7F
	fldcw	72(%esp)
	movw	%cx, 72(%esp)
	fistpl	80(%esp)
	fldcw	72(%esp)
	movl	80(%esp), %ecx
	movl	%ecx, 4(%esp)
	movl	%eax, (%esp)
	calll	Terminal$printi
	movl	gvar_fin_mu_lu_n8__kterm, %eax
	movl	%eax, (%esp)
	movl	$.Lstrglobal_fkappsraycasterraycaster_mrc_mtest_l31_n4494, 4(%esp)
	calll	Terminal$print
	movl	gvar_fin_mu_lu_n8__kterm, %esi
	flds	.LCPI118_2
	fstl	32(%esp)                # 8-byte Folded Spill
	faddl	_the_zero_double
	fstpl	(%esp)
	calll	rcsin
	fldl	40(%esp)                # 8-byte Folded Reload
	faddl	_the_zero_double
	fmulp	%st(1)
	fnstcw	70(%esp)
	movw	70(%esp), %ax
	movw	$3199, 70(%esp)         # imm = 0xC7F
	fldcw	70(%esp)
	movw	%ax, 70(%esp)
	fistpl	84(%esp)
	fldcw	70(%esp)
	movl	84(%esp), %eax
	movl	%esi, (%esp)
	movl	%eax, 4(%esp)
	calll	Terminal$printi
	movl	gvar_fin_mu_lu_n8__kterm, %eax
	movl	%eax, (%esp)
	movl	$.Lstrglobal_fkappsraycasterraycaster_mrc_mtest_l33_n4509, 4(%esp)
	calll	Terminal$print
	movl	gvar_fin_mu_lu_n8__kterm, %esi
	flds	.LCPI118_3
	fstl	24(%esp)                # 8-byte Folded Spill
	faddl	_the_zero_double
	fstpl	(%esp)
	calll	rcsin
	fldl	40(%esp)                # 8-byte Folded Reload
	faddl	_the_zero_double
	fmulp	%st(1)
	fnstcw	68(%esp)
	movw	68(%esp), %ax
	movw	$3199, 68(%esp)         # imm = 0xC7F
	fldcw	68(%esp)
	movw	%ax, 68(%esp)
	fistpl	88(%esp)
	fldcw	68(%esp)
	movl	88(%esp), %eax
	movl	%esi, (%esp)
	movl	%eax, 4(%esp)
	calll	Terminal$printi
	movl	gvar_fin_mu_lu_n8__kterm, %eax
	movl	%eax, (%esp)
	movl	$.Lstrglobal_fkappsraycasterraycaster_mrc_mtest_l35_n4524, 4(%esp)
	calll	Terminal$print
	movl	gvar_fin_mu_lu_n8__kterm, %esi
	flds	.LCPI118_4
	fstl	16(%esp)                # 8-byte Folded Spill
	faddl	_the_zero_double
	fstpl	(%esp)
	calll	rcsin
	fldl	40(%esp)                # 8-byte Folded Reload
	faddl	_the_zero_double
	fmulp	%st(1)
	fnstcw	66(%esp)
	movw	66(%esp), %ax
	movw	$3199, 66(%esp)         # imm = 0xC7F
	fldcw	66(%esp)
	movw	%ax, 66(%esp)
	fistpl	92(%esp)
	fldcw	66(%esp)
	movl	92(%esp), %eax
	movl	%esi, (%esp)
	movl	%eax, 4(%esp)
	calll	Terminal$printi
	movl	gvar_fin_mu_lu_n8__kterm, %eax
	movl	%eax, (%esp)
	movl	$.Lstrglobal_fkappsraycasterraycaster_mrc_mtest_l37_n4539, 4(%esp)
	calll	Terminal$print
	movl	gvar_fin_mu_lu_n8__kterm, %esi
	flds	.LCPI118_5
	fstl	8(%esp)                 # 8-byte Folded Spill
	faddl	_the_zero_double
	fstpl	(%esp)
	calll	rcsin
	fldl	40(%esp)                # 8-byte Folded Reload
	faddl	_the_zero_double
	fmulp	%st(1)
	fnstcw	64(%esp)
	movw	64(%esp), %ax
	movw	$3199, 64(%esp)         # imm = 0xC7F
	fldcw	64(%esp)
	movw	%ax, 64(%esp)
	fistpl	96(%esp)
	fldcw	64(%esp)
	movl	96(%esp), %eax
	movl	%esi, (%esp)
	movl	%eax, 4(%esp)
	calll	Terminal$printi
	movl	gvar_fin_mu_lu_n8__kterm, %eax
	movl	%eax, (%esp)
	movl	$.Lstrglobal_fkappsraycasterraycaster_mrc_mtest_l40_n4554, 4(%esp)
	calll	Terminal$print
	movl	gvar_fin_mu_lu_n8__kterm, %esi
	fldl	32(%esp)                # 8-byte Folded Reload
	faddl	_the_zero_double
	fstpl	(%esp)
	calll	rccos
	fldl	40(%esp)                # 8-byte Folded Reload
	faddl	_the_zero_double
	fmulp	%st(1)
	fnstcw	62(%esp)
	movw	62(%esp), %ax
	movw	$3199, 62(%esp)         # imm = 0xC7F
	fldcw	62(%esp)
	movw	%ax, 62(%esp)
	fistpl	100(%esp)
	fldcw	62(%esp)
	movl	100(%esp), %eax
	movl	%esi, (%esp)
	movl	%eax, 4(%esp)
	calll	Terminal$printi
	movl	gvar_fin_mu_lu_n8__kterm, %eax
	movl	%eax, (%esp)
	movl	$.Lstrglobal_fkappsraycasterraycaster_mrc_mtest_l42_n4569, 4(%esp)
	calll	Terminal$print
	movl	gvar_fin_mu_lu_n8__kterm, %esi
	fldl	24(%esp)                # 8-byte Folded Reload
	faddl	_the_zero_double
	fstpl	(%esp)
	calll	rccos
	fldl	40(%esp)                # 8-byte Folded Reload
	faddl	_the_zero_double
	fmulp	%st(1)
	fnstcw	60(%esp)
	movw	60(%esp), %ax
	movw	$3199, 60(%esp)         # imm = 0xC7F
	fldcw	60(%esp)
	movw	%ax, 60(%esp)
	fistpl	104(%esp)
	fldcw	60(%esp)
	movl	104(%esp), %eax
	movl	%esi, (%esp)
	movl	%eax, 4(%esp)
	calll	Terminal$printi
	movl	gvar_fin_mu_lu_n8__kterm, %eax
	movl	%eax, (%esp)
	movl	$.Lstrglobal_fkappsraycasterraycaster_mrc_mtest_l44_n4584, 4(%esp)
	calll	Terminal$print
	movl	gvar_fin_mu_lu_n8__kterm, %esi
	fldl	16(%esp)                # 8-byte Folded Reload
	faddl	_the_zero_double
	fstpl	(%esp)
	calll	rccos
	fldl	40(%esp)                # 8-byte Folded Reload
	faddl	_the_zero_double
	fmulp	%st(1)
	fnstcw	58(%esp)
	movw	58(%esp), %ax
	movw	$3199, 58(%esp)         # imm = 0xC7F
	fldcw	58(%esp)
	movw	%ax, 58(%esp)
	fistpl	108(%esp)
	fldcw	58(%esp)
	movl	108(%esp), %eax
	movl	%esi, (%esp)
	movl	%eax, 4(%esp)
	calll	Terminal$printi
	movl	gvar_fin_mu_lu_n8__kterm, %eax
	movl	%eax, (%esp)
	movl	$.Lstrglobal_fkappsraycasterraycaster_mrc_mtest_l46_n4599, 4(%esp)
	calll	Terminal$print
	movl	gvar_fin_mu_lu_n8__kterm, %esi
	fldl	8(%esp)                 # 8-byte Folded Reload
	faddl	_the_zero_double
	fstpl	(%esp)
	calll	rccos
	fldl	40(%esp)                # 8-byte Folded Reload
	faddl	_the_zero_double
	fmulp	%st(1)
	fnstcw	56(%esp)
	movw	56(%esp), %ax
	movw	$3199, 56(%esp)         # imm = 0xC7F
	fldcw	56(%esp)
	movw	%ax, 56(%esp)
	fistpl	112(%esp)
	fldcw	56(%esp)
	movl	112(%esp), %eax
	movl	%esi, (%esp)
	movl	%eax, 4(%esp)
	calll	Terminal$printi
	movl	gvar_fin_mu_lu_n8__kterm, %eax
	movl	%eax, (%esp)
	movl	$.Lstrglobal_fkappsraycasterraycaster_mrc_mtest_l49_n4614, 4(%esp)
	calll	Terminal$print
	movl	gvar_fin_mu_lu_n8__kterm, %esi
	fldl	_the_zero_double
	fadds	.LCPI118_6
	fstpl	(%esp)
	calll	sqrt
	fnstcw	54(%esp)
	movw	54(%esp), %ax
	movw	$3199, 54(%esp)         # imm = 0xC7F
	fldcw	54(%esp)
	movw	%ax, 54(%esp)
	fistpl	116(%esp)
	fldcw	54(%esp)
	movl	116(%esp), %eax
	movl	%eax, 4(%esp)
	movl	%esi, (%esp)
	calll	Terminal$printi
	movl	gvar_fin_mu_lu_n8__kterm, %eax
	movl	%eax, (%esp)
	movl	$.Lstrglobal_fkappsraycasterraycaster_mrc_mtest_l51_n4626, 4(%esp)
	calll	Terminal$print
	movl	gvar_fin_mu_lu_n8__kterm, %esi
	fldl	_the_zero_double
	fadds	.LCPI118_7
	fstpl	(%esp)
	calll	sqrt
	fnstcw	52(%esp)
	movw	52(%esp), %ax
	movw	$3199, 52(%esp)         # imm = 0xC7F
	fldcw	52(%esp)
	movw	%ax, 52(%esp)
	fistpl	120(%esp)
	fldcw	52(%esp)
	movl	120(%esp), %eax
	movl	%eax, 4(%esp)
	movl	%esi, (%esp)
	calll	Terminal$printi
	movl	gvar_fin_mu_lu_n8__kterm, %eax
	movl	%eax, (%esp)
	movl	$.Lstrglobal_fkappsraycasterraycaster_mrc_mtest_l53_n4638, 4(%esp)
	calll	Terminal$print
	movl	gvar_fin_mu_lu_n8__kterm, %esi
	fldl	_the_zero_double
	fadds	.LCPI118_8
	fstpl	(%esp)
	calll	sqrt
	fnstcw	50(%esp)
	movw	50(%esp), %ax
	movw	$3199, 50(%esp)         # imm = 0xC7F
	fldcw	50(%esp)
	movw	%ax, 50(%esp)
	fistpl	124(%esp)
	fldcw	50(%esp)
	movl	124(%esp), %eax
	movl	%eax, 4(%esp)
	movl	%esi, (%esp)
	calll	Terminal$printi
	movl	gvar_fin_mu_lu_n8__kterm, %eax
	movl	%eax, (%esp)
	movl	$.Lstrglobal_fkappsraycasterraycaster_mrc_mtest_l56_n4650, 4(%esp)
	calll	Terminal$print
	movl	gvar_fin_mu_lu_n8__kterm, %esi
	fldl	_the_zero_double
	fadds	.LCPI118_9
	fstpl	(%esp)
	calll	sqrt
	fldl	40(%esp)                # 8-byte Folded Reload
	faddl	_the_zero_double
	fmulp	%st(1)
	fnstcw	48(%esp)
	movw	48(%esp), %ax
	movw	$3199, 48(%esp)         # imm = 0xC7F
	fldcw	48(%esp)
	movw	%ax, 48(%esp)
	fistpl	128(%esp)
	fldcw	48(%esp)
	movl	128(%esp), %eax
	movl	%esi, (%esp)
	movl	%eax, 4(%esp)
	calll	Terminal$printi
	addl	$152, %esp
	popl	%esi
	retl
.Ltmp342:
	.size	rc_mtest, .Ltmp342-rc_mtest
	.cfi_endproc

	.section	.rodata.cst8,"aM",@progbits,8
	.align	8
.LCPI119_0:
	.quad	4633264571419040487     # double 57.324840764331206
	.text
	.globl	r2d
	.align	16, 0x90
	.type	r2d,@function
r2d:                                    # @r2d
	.cfi_startproc
# BB#0:
	subl	$12, %esp
.Ltmp343:
	.cfi_def_cfa_offset 16
	fldl	16(%esp)
	fstl	(%esp)
	fldl	_the_zero_double
	faddl	.LCPI119_0
	fmulp	%st(1)
	addl	$12, %esp
	retl
.Ltmp344:
	.size	r2d, .Ltmp344-r2d
	.cfi_endproc

	.section	.rodata.cst4,"aM",@progbits,4
	.align	4
.LCPI120_0:
	.long	1102053376              # float 22
.LCPI120_1:
	.long	1094713344              # float 12
.LCPI120_4:
	.long	1073741824              # float 2
	.section	.rodata.cst8,"aM",@progbits,8
	.align	8
.LCPI120_2:
	.quad	4604119971053405471     # double 0.66000000000000003
.LCPI120_3:
	.quad	4608083138725491507     # double 1.2
	.text
	.globl	rc_run
	.align	16, 0x90
	.type	rc_run,@function
rc_run:                                 # @rc_run
	.cfi_startproc
# BB#0:
	pushl	%edi
.Ltmp345:
	.cfi_def_cfa_offset 8
	pushl	%esi
.Ltmp346:
	.cfi_def_cfa_offset 12
	subl	$372, %esp              # imm = 0x174
.Ltmp347:
	.cfi_def_cfa_offset 384
.Ltmp348:
	.cfi_offset %esi, -12
.Ltmp349:
	.cfi_offset %edi, -8
	movl	384(%esp), %eax
	movl	%eax, 368(%esp)
	calll	get_map
	movl	%eax, 364(%esp)
	calll	get_map_w
	movl	%eax, 360(%esp)
	movl	$.Lstrglobal_fkappsraycasterraycaster_mrc_run_l68_n4679, (%esp)
	calll	cstr$ord
	movb	%al, 359(%esp)
	fldl	_the_zero_double
	fadds	.LCPI120_0
	fstpl	344(%esp)
	fldl	_the_zero_double
	fadds	.LCPI120_1
	fstpl	336(%esp)
	fld1
	faddl	_the_zero_double
	fstpl	328(%esp)
	fldz
	fld	%st(0)
	faddl	_the_zero_double
	fstpl	320(%esp)
	faddl	_the_zero_double
	fstpl	312(%esp)
	fldl	_the_zero_double
	faddl	.LCPI120_2
	fstpl	304(%esp)
	movl	$10000, 300(%esp)       # imm = 0x2710
	movl	$0, 296(%esp)
	movl	$0, 292(%esp)
	movl	gvar_fin_mu_lu_n22__mbinfo, %eax
	movl	24(%eax), %eax
	movl	%eax, 244(%esp)
	movl	gvar_fin_mu_lu_n22__mbinfo, %eax
	movl	28(%eax), %eax
	movl	%eax, 240(%esp)
	movl	gvar_fin_mu_lu_n22__mbinfo, %ecx
	incl	%eax
	imull	32(%ecx), %eax
	movl	%eax, 232(%esp)
	movl	gvar_fin_mu_lu_n8__kterm, %eax
	movl	%eax, (%esp)
	movl	$.Lstrglobal_fkappsraycasterraycaster_mrc_run_l93_n4730, 4(%esp)
	calll	Terminal$print
	movl	gvar_fin_mu_lu_n8__kterm, %eax
	movl	232(%esp), %ecx
	movl	%ecx, 4(%esp)
	movl	%eax, (%esp)
	calll	Terminal$printi
	movl	gvar_fpaging_mu_lu_n21__page_manager, %eax
	movl	%eax, (%esp)
	movl	$4194304, 4(%esp)       # imm = 0x400000
	calll	PageManager$get_pde_slot_addr
	movl	%eax, (%esp)
	movl	$1, 8(%esp)
	movl	$83886080, 4(%esp)      # imm = 0x5000000
	calll	PageEntry$set
	movl	244(%esp), %eax
	movl	240(%esp), %ecx
	movl	gvar_fin_mu_lu_n22__mbinfo, %edx
	movl	32(%edx), %esi
	movl	36(%edx), %edx
	movl	%edx, %edi
	sarl	$31, %edi
	shrl	$29, %edi
	addl	%edx, %edi
	sarl	$3, %edi
	movl	%esi, 12(%esp)
	movl	%ecx, 4(%esp)
	movl	%eax, (%esp)
	movl	%edi, 8(%esp)
	movl	$4194304, 16(%esp)      # imm = 0x400000
	calll	Framebuffer$$new_hw
	movl	%eax, 228(%esp)
	movl	gvar_fin_mu_lu_n22__mbinfo, %eax
	movl	%eax, (%esp)
	calll	Framebuffer$$from_mbinfo
	movl	%eax, 224(%esp)
	fldl	_the_zero_double
	faddl	.LCPI120_3
	fstpl	136(%esp)
	movl	gvar_fin_mu_lu_n8__kterm, %eax
	movl	24(%eax), %eax
	movl	%eax, 108(%esp)
	movl	gvar_firqio_mu_lu_n5__system_kbdstate, %eax
	movl	%eax, (%esp)
	movl	$_rc_handler, 4(%esp)
	calll	KeyboardState$set_handler
	movl	gvar_fin_mu_lu_n8__kterm, %eax
	movl	$_rc_term_null_handler, 24(%eax)
	movb	$1, gvar_fkappsraycasterraycaster_mu_lu_n12__rc_running
	xorl	%eax, %eax
	testb	%al, %al
	jne	.LBB120_37
	.align	16, 0x90
.LBB120_1:                              # %fkappsraycasterraycaster_mrc_run_l136_n4798___LOOP___HEAD
                                        # =>This Loop Header: Depth=1
                                        #     Child Loop BB120_2 Depth 2
                                        #       Child Loop BB120_9 Depth 3
                                        #       Child Loop BB120_24 Depth 3
	movl	228(%esp), %eax
	movl	%eax, (%esp)
	movl	$0, 12(%esp)
	movl	$0, 8(%esp)
	movl	$0, 4(%esp)
	calll	Framebuffer$fill
	movl	$0, 236(%esp)
	cmpl	$0, 244(%esp)
	jle	.LBB120_26
	.align	16, 0x90
.LBB120_2:                              # %fkappsraycasterraycaster_mrc_run_l141_n4806___LOOP___HEAD
                                        #   Parent Loop BB120_1 Depth=1
                                        # =>  This Loop Header: Depth=2
                                        #       Child Loop BB120_9 Depth 3
                                        #       Child Loop BB120_24 Depth 3
	movl	236(%esp), %eax
	addl	%eax, %eax
	movl	%eax, 92(%esp)
	fildl	92(%esp)
	movl	244(%esp), %eax
	movl	%eax, 88(%esp)
	fidivl	88(%esp)
	fld1
	fld	%st(0)
	faddl	_the_zero_double
	fsubrp	%st(2)
	fxch	%st(1)
	fstpl	280(%esp)
	fldl	344(%esp)
	fstpl	272(%esp)
	fldl	336(%esp)
	fstpl	264(%esp)
	fldl	312(%esp)
	fmull	280(%esp)
	faddl	328(%esp)
	fstpl	256(%esp)
	fldl	304(%esp)
	fmull	280(%esp)
	faddl	320(%esp)
	fstpl	248(%esp)
	fldl	272(%esp)
	fnstcw	46(%esp)
	movw	46(%esp), %ax
	movw	$3199, 46(%esp)         # imm = 0xC7F
	fldcw	46(%esp)
	movw	%ax, 46(%esp)
	fistpl	96(%esp)
	fldcw	46(%esp)
	movl	96(%esp), %eax
	movl	%eax, 220(%esp)
	fldl	264(%esp)
	fnstcw	44(%esp)
	movw	44(%esp), %ax
	movw	$3199, 44(%esp)         # imm = 0xC7F
	fldcw	44(%esp)
	movw	%ax, 44(%esp)
	fistpl	100(%esp)
	fldcw	44(%esp)
	movl	100(%esp), %eax
	movl	%eax, 216(%esp)
	faddl	_the_zero_double
	fldl	248(%esp)
	fmul	%st(0), %st(0)
	fldl	256(%esp)
	fmul	%st(0), %st(0)
	fdivrp	%st(1)
	faddp	%st(1)
	fstpl	(%esp)
	calll	sqrt
	fstpl	208(%esp)
	fld1
	faddl	_the_zero_double
	fldl	256(%esp)
	fmul	%st(0), %st(0)
	fldl	248(%esp)
	fmul	%st(0), %st(0)
	fdivrp	%st(1)
	faddp	%st(1)
	fstpl	(%esp)
	calll	sqrt
	fstpl	200(%esp)
	movl	$0, 164(%esp)
	fldl	256(%esp)
	fldz
	faddl	_the_zero_double
	fucompp
	fnstsw	%ax
                                        # kill: AX<def> AX<kill> EAX<def>
                                        # kill: AH<def> AH<kill> EAX<kill>
	sahf
	jbe	.LBB120_4
# BB#3:                                 # %if_fkappsraycasterraycaster_mrc_run_l155_n4865___SUCC
                                        #   in Loop: Header=BB120_2 Depth=2
	movl	$-1, 172(%esp)
	fldl	272(%esp)
	movl	220(%esp), %eax
	movl	%eax, 80(%esp)
	fisubl	80(%esp)
	fmull	208(%esp)
	fstpl	192(%esp)
	fld1
	jmp	.LBB120_5
	.align	16, 0x90
.LBB120_4:                              # %if_fkappsraycasterraycaster_mrc_run_l155_n4865___FAIL
                                        #   in Loop: Header=BB120_2 Depth=2
	movl	$1, 172(%esp)
	movl	220(%esp), %eax
	movl	%eax, 84(%esp)
	fld1
	fld	%st(0)
	faddl	_the_zero_double
	fsubl	272(%esp)
	fiaddl	84(%esp)
	fmull	208(%esp)
	fstpl	192(%esp)
.LBB120_5:                              # %if_fkappsraycasterraycaster_mrc_run_l155_n4865___DONE
                                        #   in Loop: Header=BB120_2 Depth=2
	fldl	248(%esp)
	fldz
	faddl	_the_zero_double
	fucompp
	fnstsw	%ax
                                        # kill: AX<def> AX<kill> EAX<def>
                                        # kill: AH<def> AH<kill> EAX<kill>
	sahf
	jbe	.LBB120_7
# BB#6:                                 # %if_fkappsraycasterraycaster_mrc_run_l164_n4888___SUCC
                                        #   in Loop: Header=BB120_2 Depth=2
	movl	$-1, 168(%esp)
	fldl	264(%esp)
	movl	216(%esp), %eax
	movl	%eax, 72(%esp)
	fisubl	72(%esp)
	jmp	.LBB120_8
	.align	16, 0x90
.LBB120_7:                              # %if_fkappsraycasterraycaster_mrc_run_l164_n4888___FAIL
                                        #   in Loop: Header=BB120_2 Depth=2
	movl	$1, 168(%esp)
	movl	216(%esp), %eax
	movl	%eax, 76(%esp)
	fld	%st(0)
	faddl	_the_zero_double
	fsubl	264(%esp)
	fiaddl	76(%esp)
.LBB120_8:                              # %if_fkappsraycasterraycaster_mrc_run_l164_n4888___DONE
                                        #   in Loop: Header=BB120_2 Depth=2
	fmull	200(%esp)
	fstpl	184(%esp)
	jmp	.LBB120_9
	.align	16, 0x90
.LBB120_14:                             # %if_fkappsraycasterraycaster_mrc_run_l185_n4941___SUCC
                                        #   in Loop: Header=BB120_9 Depth=3
	movl	$1, 164(%esp)
.LBB120_9:                              # %if_fkappsraycasterraycaster_mrc_run_l164_n4888___DONE
                                        #   Parent Loop BB120_1 Depth=1
                                        #     Parent Loop BB120_2 Depth=2
                                        # =>    This Inner Loop Header: Depth=3
	cmpl	$0, 164(%esp)
	jne	.LBB120_15
# BB#10:                                # %fkappsraycasterraycaster_mrc_run_l173_n4907___LOOP___HEAD
                                        #   in Loop: Header=BB120_9 Depth=3
	fldl	192(%esp)
	fldl	184(%esp)
	fucompp
	fnstsw	%ax
                                        # kill: AX<def> AX<kill> EAX<def>
                                        # kill: AH<def> AH<kill> EAX<kill>
	sahf
	jbe	.LBB120_12
# BB#11:                                # %if_fkappsraycasterraycaster_mrc_run_l174_n4914___SUCC
                                        #   in Loop: Header=BB120_9 Depth=3
	fldl	192(%esp)
	faddl	208(%esp)
	fstpl	192(%esp)
	movl	172(%esp), %eax
	addl	%eax, 220(%esp)
	movl	$0, 160(%esp)
	jmp	.LBB120_13
	.align	16, 0x90
.LBB120_12:                             # %if_fkappsraycasterraycaster_mrc_run_l174_n4914___FAIL
                                        #   in Loop: Header=BB120_9 Depth=3
	fldl	184(%esp)
	faddl	200(%esp)
	fstpl	184(%esp)
	movl	168(%esp), %eax
	addl	%eax, 216(%esp)
	movl	$1, 160(%esp)
.LBB120_13:                             # %if_fkappsraycasterraycaster_mrc_run_l174_n4914___DONE
                                        #   in Loop: Header=BB120_9 Depth=3
	movl	364(%esp), %eax
	movl	216(%esp), %ecx
	imull	360(%esp), %ecx
	addl	220(%esp), %ecx
	movzbl	(%eax,%ecx), %eax
	movzbl	359(%esp), %ecx
	cmpl	%ecx, %eax
	je	.LBB120_9
	jmp	.LBB120_14
	.align	16, 0x90
.LBB120_15:                             # %fkappsraycasterraycaster_mrc_run_l173_n4907___LOOP___END
                                        #   in Loop: Header=BB120_2 Depth=2
	cmpl	$0, 160(%esp)
	jne	.LBB120_17
# BB#16:                                # %if_fkappsraycasterraycaster_mrc_run_l190_n4949___SUCC
                                        #   in Loop: Header=BB120_2 Depth=2
	movl	220(%esp), %eax
	movl	%eax, 56(%esp)
	fildl	56(%esp)
	fldl	_the_zero_double
	fadd	%st(0), %st(2)
	movl	172(%esp), %eax
	movl	%eax, 60(%esp)
	fxch	%st(2)
	fisubl	60(%esp)
	fxch	%st(2)
	fadds	.LCPI120_4
	fdivrp	%st(2)
	fxch	%st(1)
	faddl	272(%esp)
	fsubrp	%st(1)
	fdivl	256(%esp)
	jmp	.LBB120_18
	.align	16, 0x90
.LBB120_17:                             # %if_fkappsraycasterraycaster_mrc_run_l190_n4949___FAIL
                                        #   in Loop: Header=BB120_2 Depth=2
	movl	216(%esp), %eax
	movl	%eax, 64(%esp)
	fildl	64(%esp)
	fldl	_the_zero_double
	fadd	%st(0), %st(2)
	movl	168(%esp), %eax
	movl	%eax, 68(%esp)
	fxch	%st(2)
	fisubl	68(%esp)
	fxch	%st(2)
	fadds	.LCPI120_4
	fdivrp	%st(2)
	fxch	%st(1)
	faddl	264(%esp)
	fsubrp	%st(1)
	fdivl	248(%esp)
.LBB120_18:                             # %if_fkappsraycasterraycaster_mrc_run_l190_n4949___DONE
                                        #   in Loop: Header=BB120_2 Depth=2
	fstpl	176(%esp)
	movl	240(%esp), %eax
	movl	%eax, 48(%esp)
	fildl	48(%esp)
	fdivl	176(%esp)
	fnstcw	42(%esp)
	movw	42(%esp), %ax
	movw	$3199, 42(%esp)         # imm = 0xC7F
	fldcw	42(%esp)
	movw	%ax, 42(%esp)
	fistpl	52(%esp)
	fldcw	42(%esp)
	movl	52(%esp), %eax
	movl	%eax, 156(%esp)
	movl	%eax, %ecx
	shrl	$31, %ecx
	addl	%eax, %ecx
	sarl	%ecx
	movl	240(%esp), %eax
	movl	%eax, %edx
	shrl	$31, %edx
	addl	%eax, %edx
	sarl	%edx
	addl	%ecx, %edx
	movl	%edx, 152(%esp)
	movl	156(%esp), %eax
	movl	%eax, %ecx
	shrl	$31, %ecx
	addl	%eax, %ecx
	sarl	%ecx
	movl	240(%esp), %eax
	movl	%eax, %edx
	shrl	$31, %edx
	addl	%eax, %edx
	sarl	%edx
	subl	%ecx, %edx
	movl	%edx, 148(%esp)
	jns	.LBB120_20
# BB#19:                                # %if_fkappsraycasterraycaster_mrc_run_l200_n5003___SUCC
                                        #   in Loop: Header=BB120_2 Depth=2
	movl	$0, 148(%esp)
.LBB120_20:                             # %if_fkappsraycasterraycaster_mrc_run_l200_n5003___DONE
                                        #   in Loop: Header=BB120_2 Depth=2
	movl	152(%esp), %eax
	cmpl	240(%esp), %eax
	jle	.LBB120_22
# BB#21:                                # %if_fkappsraycasterraycaster_mrc_run_l204_n5008___SUCC
                                        #   in Loop: Header=BB120_2 Depth=2
	movl	240(%esp), %eax
	movl	%eax, 152(%esp)
.LBB120_22:                             # %if_fkappsraycasterraycaster_mrc_run_l204_n5008___DONE
                                        #   in Loop: Header=BB120_2 Depth=2
	movl	152(%esp), %eax
	jmp	.LBB120_24
	.align	16, 0x90
.LBB120_23:                             # %fkappsraycasterraycaster_mrc_run_l209_n5010___LOOP___HEAD
                                        #   in Loop: Header=BB120_24 Depth=3
	movl	228(%esp), %eax
	movl	236(%esp), %ecx
	movl	152(%esp), %edx
	imull	$255, 160(%esp), %esi
	movl	%esi, 16(%esp)
	movl	%edx, 8(%esp)
	movl	%ecx, 4(%esp)
	movl	%eax, (%esp)
	movl	$0, 20(%esp)
	movl	$255, 12(%esp)
	calll	Framebuffer$setpx
	movl	152(%esp), %eax
	decl	%eax
	movl	%eax, 152(%esp)
.LBB120_24:                             # %fkappsraycasterraycaster_mrc_run_l209_n5010___LOOP___HEAD
                                        #   Parent Loop BB120_1 Depth=1
                                        #     Parent Loop BB120_2 Depth=2
                                        # =>    This Inner Loop Header: Depth=3
	cmpl	148(%esp), %eax
	jg	.LBB120_23
# BB#25:                                # %fkappsraycasterraycaster_mrc_run_l209_n5010___LOOP___END
                                        #   in Loop: Header=BB120_2 Depth=2
	movl	236(%esp), %eax
	incl	%eax
	movl	%eax, 236(%esp)
	cmpl	244(%esp), %eax
	jl	.LBB120_2
.LBB120_26:                             # %fkappsraycasterraycaster_mrc_run_l141_n4806___LOOP___END
                                        #   in Loop: Header=BB120_1 Depth=1
	movl	gvar_firqio_mu_lu_n5__system_kbdstate, %eax
	movl	%eax, (%esp)
	movl	$72, 4(%esp)
	calll	KeyboardState$getkey
	testb	$1, %al
	je	.LBB120_28
# BB#27:                                # %if_fkappsraycasterraycaster_mrc_run_l216_n5039___SUCC
                                        #   in Loop: Header=BB120_1 Depth=1
	fldl	328(%esp)
	fmull	136(%esp)
	faddl	344(%esp)
	fstpl	344(%esp)
	fldl	320(%esp)
	fmull	136(%esp)
	faddl	336(%esp)
	jmp	.LBB120_30
	.align	16, 0x90
.LBB120_28:                             # %if_fkappsraycasterraycaster_mrc_run_l216_n5039___FAIL
                                        #   in Loop: Header=BB120_1 Depth=1
	movl	gvar_firqio_mu_lu_n5__system_kbdstate, %eax
	movl	%eax, (%esp)
	movl	$80, 4(%esp)
	calll	KeyboardState$getkey
	testb	$1, %al
	je	.LBB120_31
# BB#29:                                # %if_fkappsraycasterraycaster_mrc_run_l216_n5053___SUCC
                                        #   in Loop: Header=BB120_1 Depth=1
	fldl	344(%esp)
	fldl	328(%esp)
	fmull	136(%esp)
	fsubrp	%st(1)
	fstpl	344(%esp)
	fldl	336(%esp)
	fldl	320(%esp)
	fmull	136(%esp)
	fsubrp	%st(1)
.LBB120_30:                             # %if_fkappsraycasterraycaster_mrc_run_l216_n5039___DONE
                                        #   in Loop: Header=BB120_1 Depth=1
	fstpl	336(%esp)
.LBB120_31:                             # %if_fkappsraycasterraycaster_mrc_run_l216_n5039___DONE
                                        #   in Loop: Header=BB120_1 Depth=1
	movl	gvar_firqio_mu_lu_n5__system_kbdstate, %eax
	movl	%eax, (%esp)
	movl	$75, 4(%esp)
	calll	KeyboardState$getkey
	testb	$1, %al
	je	.LBB120_33
# BB#32:                                # %if_fkappsraycasterraycaster_mrc_run_l224_n5067___SUCC
                                        #   in Loop: Header=BB120_1 Depth=1
	movl	300(%esp), %eax
	decl	%eax
	jmp	.LBB120_35
	.align	16, 0x90
.LBB120_33:                             # %if_fkappsraycasterraycaster_mrc_run_l224_n5067___FAIL
                                        #   in Loop: Header=BB120_1 Depth=1
	movl	gvar_firqio_mu_lu_n5__system_kbdstate, %eax
	movl	%eax, (%esp)
	movl	$77, 4(%esp)
	calll	KeyboardState$getkey
	testb	$1, %al
	je	.LBB120_36
# BB#34:                                # %if_fkappsraycasterraycaster_mrc_run_l224_n5089___SUCC
                                        #   in Loop: Header=BB120_1 Depth=1
	movl	300(%esp), %eax
	incl	%eax
.LBB120_35:                             # %if_fkappsraycasterraycaster_mrc_run_l224_n5067___DONE
                                        #   in Loop: Header=BB120_1 Depth=1
	movl	%eax, 300(%esp)
	movl	%eax, (%esp)
	calll	rcrot_get_for
	movl	%eax, 104(%esp)
	fldl	(%eax)
	fstpl	328(%esp)
	movl	104(%esp), %eax
	fldl	8(%eax)
	fstpl	320(%esp)
	movl	104(%esp), %eax
	fldl	16(%eax)
	fstpl	312(%esp)
	movl	104(%esp), %eax
	fldl	24(%eax)
	fstpl	304(%esp)
.LBB120_36:                             # %if_fkappsraycasterraycaster_mrc_run_l224_n5067___DONE
                                        #   in Loop: Header=BB120_1 Depth=1
	movl	224(%esp), %eax
	movl	228(%esp), %ecx
	movl	%ecx, 4(%esp)
	movl	%eax, (%esp)
	calll	Framebuffer$copyfrom
	movb	gvar_fkappsraycasterraycaster_mu_lu_n12__rc_running, %al
	testb	%al, %al
	jne	.LBB120_1
.LBB120_37:                             # %fkappsraycasterraycaster_mrc_run_l136_n4798___LOOP___END
	movl	gvar_fin_mu_lu_n8__kterm, %eax
	movl	108(%esp), %ecx
	movl	%ecx, 24(%eax)
	addl	$372, %esp              # imm = 0x174
	popl	%esi
	popl	%edi
	retl
.Ltmp350:
	.size	rc_run, .Ltmp350-rc_run
	.cfi_endproc

	.globl	_rc_handler
	.align	16, 0x90
	.type	_rc_handler,@function
_rc_handler:                            # @_rc_handler
	.cfi_startproc
# BB#0:
	subl	$28, %esp
.Ltmp351:
	.cfi_def_cfa_offset 32
	movb	36(%esp), %al
	movl	32(%esp), %ecx
	movl	%ecx, 24(%esp)
	andb	$1, %al
	movb	%al, 23(%esp)
	movl	24(%esp), %eax
	cmpl	$16, %eax
	sete	%cl
	cmpl	$27, %eax
	sete	%al
	movzbl	%al, %eax
	movl	%eax, 4(%esp)
	movzbl	%cl, %eax
	movl	%eax, (%esp)
	calll	bool$or
	testb	$1, %al
	je	.LBB121_2
# BB#1:                                 # %if_fkappsraycasterraycaster_m_rc_handler_l247_n5124___SUCC
	movb	$0, gvar_fkappsraycasterraycaster_mu_lu_n12__rc_running
.LBB121_2:                              # %if_fkappsraycasterraycaster_m_rc_handler_l247_n5124___DONE
	addl	$28, %esp
	retl
.Ltmp352:
	.size	_rc_handler, .Ltmp352-_rc_handler
	.cfi_endproc

	.globl	_rc_term_null_handler
	.align	16, 0x90
	.type	_rc_term_null_handler,@function
_rc_term_null_handler:                  # @_rc_term_null_handler
	.cfi_startproc
# BB#0:
	retl
.Ltmp353:
	.size	_rc_term_null_handler, .Ltmp353-_rc_term_null_handler
	.cfi_endproc

	.globl	BMPImage$get_data
	.align	16, 0x90
	.type	BMPImage$get_data,@function
BMPImage$get_data:                      # @"BMPImage$get_data"
	.cfi_startproc
# BB#0:
	subl	$12, %esp
.Ltmp354:
	.cfi_def_cfa_offset 16
	movl	16(%esp), %eax
	movl	%eax, 8(%esp)
	movl	10(%eax), %ecx
	movl	%ecx, 4(%esp)
	movl	%eax, (%esp)
	calll	ptr$offset
	addl	$12, %esp
	retl
.Ltmp355:
	.size	BMPImage$get_data, .Ltmp355-BMPImage$get_data
	.cfi_endproc

	.globl	BMPImage$get_pitch
	.align	16, 0x90
	.type	BMPImage$get_pitch,@function
BMPImage$get_pitch:                     # @"BMPImage$get_pitch"
	.cfi_startproc
# BB#0:
	subl	$8, %esp
.Ltmp356:
	.cfi_def_cfa_offset 12
	movl	12(%esp), %eax
	movl	%eax, 4(%esp)
	movzwl	28(%eax), %ecx
	shrl	$3, %ecx
	imull	18(%eax), %ecx
	movl	%ecx, (%esp)
	movl	%ecx, %eax
	sarl	$31, %eax
	shrl	$30, %eax
	addl	%ecx, %eax
	andl	$-4, %eax
	cmpl	%eax, %ecx
	je	.LBB124_2
# BB#1:                                 # %if_fkappsdrawbmp_mBMPImage$get_pitch_l32_n5151___SUCC
	movl	(%esp), %eax
	movl	%eax, %ecx
	sarl	$31, %ecx
	shrl	$30, %ecx
	addl	%eax, %ecx
	andl	$-4, %ecx
	movl	%eax, %edx
	subl	%ecx, %edx
	negl	%edx
	leal	4(%eax,%edx), %eax
	movl	%eax, (%esp)
.LBB124_2:                              # %if_fkappsdrawbmp_mBMPImage$get_pitch_l32_n5151___DONE
	movl	(%esp), %eax
	addl	$8, %esp
	retl
.Ltmp357:
	.size	BMPImage$get_pitch, .Ltmp357-BMPImage$get_pitch
	.cfi_endproc

	.globl	BMPImage$get_pixel
	.align	16, 0x90
	.type	BMPImage$get_pixel,@function
BMPImage$get_pixel:                     # @"BMPImage$get_pixel"
	.cfi_startproc
# BB#0:
	pushl	%esi
.Ltmp358:
	.cfi_def_cfa_offset 8
	subl	$24, %esp
.Ltmp359:
	.cfi_def_cfa_offset 32
.Ltmp360:
	.cfi_offset %esi, -8
	movl	40(%esp), %eax
	movl	36(%esp), %ecx
	movl	32(%esp), %edx
	movl	%edx, 20(%esp)
	movl	%ecx, 16(%esp)
	movl	%eax, 12(%esp)
	movl	20(%esp), %eax
	movl	%eax, (%esp)
	calll	BMPImage$get_data
	movl	%eax, %esi
	movl	20(%esp), %eax
	movl	%eax, (%esp)
	calll	BMPImage$get_pitch
	movl	20(%esp), %ecx
	movl	22(%ecx), %edx
	subl	12(%esp), %edx
	imull	%eax, %edx
	movzwl	28(%ecx), %eax
	shrl	$3, %eax
	imull	16(%esp), %eax
	addl	%edx, %eax
	movl	%eax, 4(%esp)
	movl	%esi, (%esp)
	calll	ptr$offset
	addl	$24, %esp
	popl	%esi
	retl
.Ltmp361:
	.size	BMPImage$get_pixel, .Ltmp361-BMPImage$get_pixel
	.cfi_endproc

	.globl	kc_draw_bmp
	.align	16, 0x90
	.type	kc_draw_bmp,@function
kc_draw_bmp:                            # @kc_draw_bmp
	.cfi_startproc
# BB#0:
	pushl	%ebp
.Ltmp362:
	.cfi_def_cfa_offset 8
.Ltmp363:
	.cfi_offset %ebp, -8
	movl	%esp, %ebp
.Ltmp364:
	.cfi_def_cfa_register %ebp
	pushl	%ebx
	pushl	%edi
	pushl	%esi
	subl	$28, %esp
.Ltmp365:
	.cfi_offset %esi, -20
.Ltmp366:
	.cfi_offset %edi, -16
.Ltmp367:
	.cfi_offset %ebx, -12
	movl	8(%ebp), %eax
	movl	%eax, -16(%ebp)
	movl	gvar_fin_mu_lu_n22__mbinfo, %ecx
	subl	$16, %esp
	movl	%eax, 4(%esp)
	movl	%ecx, (%esp)
	calll	MultibootInfo$get_mod_by_args
	addl	$16, %esp
	movl	%eax, -20(%ebp)
	testl	%eax, %eax
	jne	.LBB126_4
# BB#1:                                 # %if_fkappsdrawbmp_mkc_draw_bmp_l44_n5194___SUCC
	movl	gvar_fin_mu_lu_n8__kterm, %eax
	subl	$16, %esp
	movl	%eax, (%esp)
	movl	$.Lstrglobal_fkappsdrawbmp_mkc_draw_bmp_l45_n5197, 4(%esp)
	jmp	.LBB126_2
.LBB126_4:                              # %if_fkappsdrawbmp_mkc_draw_bmp_l44_n5194___DONE
	movl	%esp, %eax
	leal	-16(%eax), %esi
	movl	%esi, -36(%ebp)         # 4-byte Spill
	movl	%esi, %esp
	movl	-20(%ebp), %ecx
	movl	4(%ecx), %ecx
	movl	%ecx, -16(%eax)
	movzbl	(%ecx), %edi
	subl	$16, %esp
	movl	$.Lstrglobal_fkappsdrawbmp_mkc_draw_bmp_l51_n5211, (%esp)
	calll	cstr$ord
	addl	$16, %esp
	movzbl	%al, %eax
	cmpl	%eax, %edi
	je	.LBB126_6
# BB#5:                                 # %if_fkappsdrawbmp_mkc_draw_bmp_l51_n5214___SUCC
	movl	gvar_fin_mu_lu_n8__kterm, %eax
	subl	$16, %esp
	movl	%eax, (%esp)
	movl	$.Lstrglobal_fkappsdrawbmp_mkc_draw_bmp_l52_n5217, 4(%esp)
	jmp	.LBB126_2
.LBB126_6:                              # %if_fkappsdrawbmp_mkc_draw_bmp_l51_n5214___DONE
	movl	(%esi), %eax
	movzbl	1(%eax), %edi
	subl	$16, %esp
	movl	$.Lstrglobal_fkappsdrawbmp_mkc_draw_bmp_l56_n5226, (%esp)
	calll	cstr$ord
	addl	$16, %esp
	movzbl	%al, %eax
	cmpl	%eax, %edi
	je	.LBB126_8
# BB#7:                                 # %if_fkappsdrawbmp_mkc_draw_bmp_l56_n5229___SUCC
	movl	gvar_fin_mu_lu_n8__kterm, %eax
	subl	$16, %esp
	movl	%eax, (%esp)
	movl	$.Lstrglobal_fkappsdrawbmp_mkc_draw_bmp_l57_n5232, 4(%esp)
	jmp	.LBB126_2
.LBB126_8:                              # %if_fkappsdrawbmp_mkc_draw_bmp_l56_n5229___DONE
	movl	(%esi), %eax
	cmpl	$0, 30(%eax)
	je	.LBB126_10
# BB#9:                                 # %if_fkappsdrawbmp_mkc_draw_bmp_l61_n5240___SUCC
	movl	gvar_fin_mu_lu_n8__kterm, %eax
	subl	$16, %esp
	movl	%eax, (%esp)
	movl	$.Lstrglobal_fkappsdrawbmp_mkc_draw_bmp_l62_n5243, 4(%esp)
	jmp	.LBB126_2
.LBB126_10:                             # %if_fkappsdrawbmp_mkc_draw_bmp_l61_n5240___DONE
	movl	(%esi), %eax
	movzwl	28(%eax), %eax
	cmpl	$24, %eax
	je	.LBB126_12
# BB#11:                                # %if_fkappsdrawbmp_mkc_draw_bmp_l66_n5252___SUCC
	movl	gvar_fin_mu_lu_n8__kterm, %eax
	subl	$16, %esp
	movl	%eax, (%esp)
	movl	$.Lstrglobal_fkappsdrawbmp_mkc_draw_bmp_l67_n5255, 4(%esp)
.LBB126_2:                              # %if_fkappsdrawbmp_mkc_draw_bmp_l44_n5194___SUCC
	calll	Terminal$printl
.LBB126_3:                              # %fkappsdrawbmp_mkc_draw_bmp_l76_n5266___LOOP___END
	leal	-12(%ebp), %esp
	popl	%esi
	popl	%edi
	popl	%ebx
	popl	%ebp
	retl
.LBB126_12:                             # %if_fkappsdrawbmp_mkc_draw_bmp_l66_n5252___DONE
	movl	%esp, %edi
	leal	-16(%edi), %ebx
	movl	%ebx, %esp
	movl	gvar_fin_mu_lu_n22__mbinfo, %eax
	subl	$16, %esp
	movl	%eax, (%esp)
	calll	Framebuffer$$from_mbinfo
	addl	$16, %esp
	movl	%eax, -16(%edi)
	movl	%esp, %eax
	leal	-16(%eax), %edi
	movl	%edi, %esp
	movl	$0, -16(%eax)
	movl	%esp, %edx
	addl	$-16, %edx
	movl	%edx, -24(%ebp)         # 4-byte Spill
	movl	%edx, %esp
	movl	%esp, %ecx
	addl	$-16, %ecx
	movl	%ecx, -40(%ebp)         # 4-byte Spill
	movl	%ecx, %esp
	movl	-16(%eax), %eax
	jmp	.LBB126_13
.LBB126_16:                             # %fkappsdrawbmp_mkc_draw_bmp_l78_n5273___LOOP___END
                                        #   in Loop: Header=BB126_13 Depth=1
	movl	(%edi), %eax
	incl	%eax
	movl	%eax, (%edi)
.LBB126_13:                             # %if_fkappsdrawbmp_mkc_draw_bmp_l66_n5252___DONE
                                        # =>This Loop Header: Depth=1
                                        #     Child Loop BB126_15 Depth 2
	movl	(%esi), %ecx
	cmpl	22(%ecx), %eax
	jge	.LBB126_3
# BB#14:                                # %fkappsdrawbmp_mkc_draw_bmp_l76_n5266___LOOP___HEAD
                                        #   in Loop: Header=BB126_13 Depth=1
	movl	$0, (%edx)
	movl	(%esi), %eax
	cmpl	$0, 18(%eax)
	jle	.LBB126_16
	.align	16, 0x90
.LBB126_15:                             # %fkappsdrawbmp_mkc_draw_bmp_l78_n5273___LOOP___HEAD
                                        #   Parent Loop BB126_13 Depth=1
                                        # =>  This Inner Loop Header: Depth=2
	movl	(%esi), %eax
	movl	(%edx), %ecx
	movl	(%edi), %edx
	subl	$16, %esp
	movl	%edx, 8(%esp)
	movl	%ecx, 4(%esp)
	movl	%eax, (%esp)
	calll	BMPImage$get_pixel
	addl	$16, %esp
	movl	-40(%ebp), %ecx         # 4-byte Reload
	movl	%eax, (%ecx)
	movl	(%ebx), %ecx
	movl	%ecx, -28(%ebp)         # 4-byte Spill
	movl	-24(%ebp), %ecx         # 4-byte Reload
	movl	(%ecx), %ecx
	movl	%ecx, -32(%ebp)         # 4-byte Spill
	movl	(%edi), %esi
	movl	%ebx, %edx
	movzbl	2(%eax), %ebx
	movl	%edi, %ecx
	movzbl	1(%eax), %edi
	movzbl	(%eax), %eax
	subl	$32, %esp
	movl	%eax, 20(%esp)
	movl	%edi, 16(%esp)
	movl	%ecx, %edi
	movl	%ebx, 12(%esp)
	movl	%edx, %ebx
	movl	%esi, 8(%esp)
	movl	-36(%ebp), %esi         # 4-byte Reload
	movl	-32(%ebp), %eax         # 4-byte Reload
	movl	%eax, 4(%esp)
	movl	-28(%ebp), %eax         # 4-byte Reload
	movl	%eax, (%esp)
	calll	Framebuffer$setpx
	movl	-24(%ebp), %edx         # 4-byte Reload
	addl	$32, %esp
	movl	(%edx), %eax
	incl	%eax
	movl	%eax, (%edx)
	movl	(%esi), %ecx
	cmpl	18(%ecx), %eax
	jl	.LBB126_15
	jmp	.LBB126_16
.Ltmp368:
	.size	kc_draw_bmp, .Ltmp368-kc_draw_bmp
	.cfi_endproc

	.globl	s_lfsr_next
	.align	16, 0x90
	.type	s_lfsr_next,@function
s_lfsr_next:                            # @s_lfsr_next
	.cfi_startproc
# BB#0:
	subl	$12, %esp
.Ltmp369:
	.cfi_def_cfa_offset 16
	movzwl	gvar_fkappssnakerng_mu_lu_n13__s_lfsr_state, %eax
	movl	%eax, %ecx
	andl	$65532, %ecx            # imm = 0xFFFC
	shrl	$2, %ecx
	movl	%ecx, 4(%esp)
	movl	%eax, (%esp)
	calll	short$xor
                                        # kill: AX<def> AX<kill> EAX<def>
	movzwl	gvar_fkappssnakerng_mu_lu_n13__s_lfsr_state, %ecx
	shrl	$3, %ecx
	movl	%ecx, 4(%esp)
	movl	%eax, (%esp)
	calll	short$xor
                                        # kill: AX<def> AX<kill> EAX<def>
	movzwl	gvar_fkappssnakerng_mu_lu_n13__s_lfsr_state, %ecx
	shrl	$5, %ecx
	movl	%ecx, 4(%esp)
	movl	%eax, (%esp)
	calll	short$xor
                                        # kill: AX<def> AX<kill> EAX<def>
	andl	$1, %eax
	movw	%ax, 10(%esp)
	shrw	gvar_fkappssnakerng_mu_lu_n13__s_lfsr_state
	cmpw	$0, 10(%esp)
	setne	%al
	movzbl	%al, %eax
	movl	%eax, 4(%esp)
	movl	$1, (%esp)
	calll	bool$and
	testb	$1, %al
	je	.LBB127_2
# BB#1:                                 # %if_fkappssnakerng_ms_lfsr_next_l6_n5357___SUCC
	addw	$-32768, gvar_fkappssnakerng_mu_lu_n13__s_lfsr_state # imm = 0xFFFFFFFFFFFF8000
.LBB127_2:                              # %if_fkappssnakerng_ms_lfsr_next_l6_n5357___DONE
	movzwl	gvar_fkappssnakerng_mu_lu_n13__s_lfsr_state, %eax
	addl	$12, %esp
	retl
.Ltmp370:
	.size	s_lfsr_next, .Ltmp370-s_lfsr_next
	.cfi_endproc

	.globl	s_lfsr_seed
	.align	16, 0x90
	.type	s_lfsr_seed,@function
s_lfsr_seed:                            # @s_lfsr_seed
	.cfi_startproc
# BB#0:
	pushl	%eax
.Ltmp371:
	.cfi_def_cfa_offset 8
	movl	8(%esp), %eax
	movl	%eax, (%esp)
	movw	(%esp), %ax
	movw	%ax, gvar_fkappssnakerng_mu_lu_n13__s_lfsr_state
	popl	%eax
	retl
.Ltmp372:
	.size	s_lfsr_seed, .Ltmp372-s_lfsr_seed
	.cfi_endproc

	.globl	s_lfsr_seed_time
	.align	16, 0x90
	.type	s_lfsr_seed_time,@function
s_lfsr_seed_time:                       # @s_lfsr_seed_time
	.cfi_startproc
# BB#0:
	subl	$28, %esp
.Ltmp373:
	.cfi_def_cfa_offset 32
	movl	gvar_firqio_mu_lu_n6__pic_ticks+4, %eax
	movl	gvar_firqio_mu_lu_n6__pic_ticks, %ecx
	addl	$20, %ecx
	adcl	$0, %eax
	movl	%ecx, 16(%esp)
	movl	%eax, 20(%esp)
	movl	$0, 12(%esp)
	movl	gvar_firqio_mu_lu_n6__pic_ticks+4, %ecx
	movl	gvar_firqio_mu_lu_n6__pic_ticks, %eax
	cmpl	16(%esp), %eax
	setae	%al
	cmpl	20(%esp), %ecx
	setge	%cl
	je	.LBB129_2
# BB#1:
	movb	%cl, %al
.LBB129_2:
	testb	%al, %al
	jne	.LBB129_6
	.align	16, 0x90
.LBB129_3:                              # %fkappssnakerng_ms_lfsr_seed_time_l18_n5376___LOOP___HEAD
                                        # =>This Inner Loop Header: Depth=1
	incl	12(%esp)
	movl	gvar_firqio_mu_lu_n6__pic_ticks+4, %ecx
	movl	gvar_firqio_mu_lu_n6__pic_ticks, %eax
	cmpl	16(%esp), %eax
	setb	%al
	cmpl	20(%esp), %ecx
	setl	%cl
	je	.LBB129_5
# BB#4:                                 # %fkappssnakerng_ms_lfsr_seed_time_l18_n5376___LOOP___HEAD
                                        #   in Loop: Header=BB129_3 Depth=1
	movb	%cl, %al
.LBB129_5:                              # %fkappssnakerng_ms_lfsr_seed_time_l18_n5376___LOOP___HEAD
                                        #   in Loop: Header=BB129_3 Depth=1
	testb	%al, %al
	jne	.LBB129_3
.LBB129_6:                              # %fkappssnakerng_ms_lfsr_seed_time_l18_n5376___LOOP___END
	movl	12(%esp), %eax
	movl	%eax, (%esp)
	calll	s_lfsr_seed
	addl	$28, %esp
	retl
.Ltmp374:
	.size	s_lfsr_seed_time, .Ltmp374-s_lfsr_seed_time
	.cfi_endproc

	.globl	s_randint
	.align	16, 0x90
	.type	s_randint,@function
s_randint:                              # @s_randint
	.cfi_startproc
# BB#0:
	pushl	%esi
.Ltmp375:
	.cfi_def_cfa_offset 8
	subl	$56, %esp
.Ltmp376:
	.cfi_def_cfa_offset 64
.Ltmp377:
	.cfi_offset %esi, -8
	movl	68(%esp), %eax
	movl	64(%esp), %ecx
	movl	%ecx, 52(%esp)
	movl	%eax, 48(%esp)
	movl	52(%esp), %esi
	subl	%esi, %eax
	movl	%eax, 32(%esp)
	calll	s_lfsr_next
	movl	%eax, 36(%esp)
	fildl	36(%esp)
	fstpl	20(%esp)                # 8-byte Folded Spill
	movl	$16, 4(%esp)
	movl	$2, (%esp)
	calll	int$pow
	movl	%eax, 40(%esp)
	fldl	20(%esp)                # 8-byte Folded Reload
	fidivl	40(%esp)
	fimull	32(%esp)
	fnstcw	30(%esp)
	movw	30(%esp), %ax
	movw	$3199, 30(%esp)         # imm = 0xC7F
	fldcw	30(%esp)
	movw	%ax, 30(%esp)
	fistpl	44(%esp)
	fldcw	30(%esp)
	addl	44(%esp), %esi
	movl	%esi, %eax
	addl	$56, %esp
	popl	%esi
	retl
.Ltmp378:
	.size	s_randint, .Ltmp378-s_randint
	.cfi_endproc

	.globl	s_rngtest
	.align	16, 0x90
	.type	s_rngtest,@function
s_rngtest:                              # @s_rngtest
	.cfi_startproc
# BB#0:
	pushl	%ebp
.Ltmp379:
	.cfi_def_cfa_offset 8
.Ltmp380:
	.cfi_offset %ebp, -8
	movl	%esp, %ebp
.Ltmp381:
	.cfi_def_cfa_register %ebp
	pushl	%edi
	pushl	%esi
	subl	$16, %esp
.Ltmp382:
	.cfi_offset %esi, -16
.Ltmp383:
	.cfi_offset %edi, -12
	movl	8(%ebp), %eax
	movl	%eax, -12(%ebp)
	movl	gvar_fin_mu_lu_n8__kterm, %eax
	subl	$16, %esp
	movl	%eax, (%esp)
	movl	$.Lstrglobal_fkappssnakerng_ms_rngtest_l28_n5410, 4(%esp)
	calll	Terminal$print
	addl	$16, %esp
	calll	s_lfsr_seed_time
	movl	gvar_fin_mu_lu_n8__kterm, %eax
	subl	$16, %esp
	movl	%eax, (%esp)
	movl	$.Lstrglobal_fkappssnakerng_ms_rngtest_l30_n5417, 4(%esp)
	calll	Terminal$print
	addl	$16, %esp
	movl	gvar_fin_mu_lu_n8__kterm, %eax
	movzwl	gvar_fkappssnakerng_mu_lu_n13__s_lfsr_state, %ecx
	subl	$16, %esp
	movl	%ecx, 4(%esp)
	movl	%eax, (%esp)
	calll	Terminal$printi
	addl	$16, %esp
	movl	gvar_fin_mu_lu_n8__kterm, %eax
	subl	$16, %esp
	movl	%eax, (%esp)
	movl	$.Lstrglobal_fkappssnakerng_ms_rngtest_l32_n5426, 4(%esp)
	calll	Terminal$print
	addl	$16, %esp
	movzwl	gvar_fkappssnakerng_mu_lu_n13__s_lfsr_state, %eax
	movl	%eax, -16(%ebp)
	movl	gvar_fin_mu_lu_n8__kterm, %eax
	subl	$16, %esp
	movl	%eax, (%esp)
	movl	$.Lstrglobal_fkappssnakerng_ms_rngtest_l36_n5434, 4(%esp)
	calll	Terminal$print
	addl	$16, %esp
	movl	$0, -20(%ebp)
	jmp	.LBB131_2
	.align	16, 0x90
.LBB131_1:                              # %fkappssnakerng_ms_rngtest_l38_n5439___LOOP___HEAD
                                        #   in Loop: Header=BB131_2 Depth=1
	incl	-20(%ebp)
.LBB131_2:                              # %fkappssnakerng_ms_rngtest_l38_n5439___LOOP___HEAD
                                        # =>This Inner Loop Header: Depth=1
	calll	s_lfsr_next
	cmpl	-16(%ebp), %eax
	setne	%al
	cmpl	$10000, -20(%ebp)       # imm = 0x2710
	setl	%cl
	subl	$16, %esp
	movzbl	%al, %eax
	movl	%eax, (%esp)
	movzbl	%cl, %eax
	movl	%eax, 4(%esp)
	calll	bool$and
	addl	$16, %esp
	testb	$1, %al
	jne	.LBB131_1
# BB#3:                                 # %fkappssnakerng_ms_rngtest_l38_n5439___LOOP___END
	movl	gvar_fin_mu_lu_n8__kterm, %eax
	movl	-20(%ebp), %ecx
	subl	$16, %esp
	movl	%ecx, 4(%esp)
	movl	%eax, (%esp)
	calll	Terminal$printi
	addl	$16, %esp
	cmpl	$10000, -20(%ebp)       # imm = 0x2710
	jne	.LBB131_5
# BB#4:                                 # %if_fkappssnakerng_ms_rngtest_l43_n5466___SUCC
	movl	gvar_fin_mu_lu_n8__kterm, %eax
	subl	$16, %esp
	movl	%eax, (%esp)
	movl	$.Lstrglobal_fkappssnakerng_ms_rngtest_l44_n5469, 4(%esp)
	calll	Terminal$print
	addl	$16, %esp
.LBB131_5:                              # %if_fkappssnakerng_ms_rngtest_l43_n5466___DONE
	movl	gvar_fin_mu_lu_n8__kterm, %eax
	subl	$16, %esp
	movl	%eax, (%esp)
	movl	$.Lstrglobal_fkappssnakerng_ms_rngtest_l47_n5474, 4(%esp)
	calll	Terminal$print
	addl	$16, %esp
	movl	%esp, %eax
	leal	-16(%eax), %esi
	movl	%esi, %esp
	movl	$0, -16(%eax)
	movl	%esp, %edi
	addl	$-16, %edi
	movl	%edi, %esp
	cmpl	$9, -16(%eax)
	jg	.LBB131_7
	.align	16, 0x90
.LBB131_6:                              # %fkappssnakerng_ms_rngtest_l51_n5480___LOOP___HEAD
                                        # =>This Inner Loop Header: Depth=1
	movl	gvar_fin_mu_lu_n8__kterm, %eax
	subl	$16, %esp
	movl	%eax, (%esp)
	movl	$.Lstrglobal_fkappssnakerng_ms_rngtest_l52_n5486, 4(%esp)
	calll	Terminal$print
	addl	$16, %esp
	calll	s_lfsr_next
	movl	%eax, (%edi)
	movl	gvar_fin_mu_lu_n8__kterm, %ecx
	subl	$16, %esp
	movl	%eax, 4(%esp)
	movl	%ecx, (%esp)
	calll	Terminal$printi
	addl	$16, %esp
	movl	gvar_fin_mu_lu_n8__kterm, %eax
	subl	$16, %esp
	movl	%eax, (%esp)
	movl	$.Lstrglobal_fkappssnakerng_ms_rngtest_l55_n5496, 4(%esp)
	calll	Terminal$print
	addl	$16, %esp
	movl	gvar_fin_mu_lu_n8__kterm, %eax
	movl	(%edi), %ecx
	subl	$16, %esp
	movl	%ecx, 4(%esp)
	movl	%eax, (%esp)
	calll	Terminal$dumpbin
	addl	$16, %esp
	movl	(%esi), %eax
	incl	%eax
	movl	%eax, (%esi)
	cmpl	$10, %eax
	jl	.LBB131_6
.LBB131_7:                              # %fkappssnakerng_ms_rngtest_l51_n5480___LOOP___END
	movl	gvar_fin_mu_lu_n8__kterm, %eax
	subl	$16, %esp
	movl	%eax, (%esp)
	movl	$.Lstrglobal_fkappssnakerng_ms_rngtest_l60_n5510, 4(%esp)
	calll	Terminal$print
	addl	$16, %esp
	movl	$0, (%esi)
	xorl	%eax, %eax
	testb	%al, %al
	jne	.LBB131_9
	.align	16, 0x90
.LBB131_8:                              # %fkappssnakerng_ms_rngtest_l63_n5514___LOOP___HEAD
                                        # =>This Inner Loop Header: Depth=1
	movl	gvar_fin_mu_lu_n8__kterm, %eax
	subl	$16, %esp
	movl	%eax, (%esp)
	movl	$.Lstrglobal_fkappssnakerng_ms_rngtest_l64_n5520, 4(%esp)
	calll	Terminal$print
	addl	$16, %esp
	movl	gvar_fin_mu_lu_n8__kterm, %edi
	subl	$16, %esp
	movl	$10, 4(%esp)
	movl	$1, (%esp)
	calll	s_randint
	addl	$16, %esp
	subl	$16, %esp
	movl	%eax, 4(%esp)
	movl	%edi, (%esp)
	calll	Terminal$printi
	addl	$16, %esp
	movl	(%esi), %eax
	incl	%eax
	movl	%eax, (%esi)
	cmpl	$10, %eax
	jl	.LBB131_8
.LBB131_9:                              # %fkappssnakerng_ms_rngtest_l63_n5514___LOOP___END
	leal	-8(%ebp), %esp
	popl	%esi
	popl	%edi
	popl	%ebp
	retl
.Ltmp384:
	.size	s_rngtest, .Ltmp384-s_rngtest
	.cfi_endproc

	.globl	Segment$$new
	.align	16, 0x90
	.type	Segment$$new,@function
Segment$$new:                           # @"Segment$$new"
	.cfi_startproc
# BB#0:
	subl	$28, %esp
.Ltmp385:
	.cfi_def_cfa_offset 32
	movl	36(%esp), %eax
	movl	32(%esp), %ecx
	movl	%ecx, 24(%esp)
	movl	%eax, 20(%esp)
	movl	$16, (%esp)
	calll	malloc
	movl	%eax, 16(%esp)
	movl	24(%esp), %ecx
	movl	%ecx, (%eax)
	movl	16(%esp), %eax
	movl	20(%esp), %ecx
	movl	%ecx, 4(%eax)
	movl	16(%esp), %eax
	movl	$0, 8(%eax)
	movl	16(%esp), %eax
	addl	$28, %esp
	retl
.Ltmp386:
	.size	Segment$$new, .Ltmp386-Segment$$new
	.cfi_endproc

	.globl	Segment$has_next
	.align	16, 0x90
	.type	Segment$has_next,@function
Segment$has_next:                       # @"Segment$has_next"
	.cfi_startproc
# BB#0:
	pushl	%eax
.Ltmp387:
	.cfi_def_cfa_offset 8
	movl	8(%esp), %eax
	movl	%eax, (%esp)
	cmpl	$0, 8(%eax)
	setne	%al
	popl	%edx
	retl
.Ltmp388:
	.size	Segment$has_next, .Ltmp388-Segment$has_next
	.cfi_endproc

	.globl	Segment$draw
	.align	16, 0x90
	.type	Segment$draw,@function
Segment$draw:                           # @"Segment$draw"
	.cfi_startproc
# BB#0:
	pushl	%esi
.Ltmp389:
	.cfi_def_cfa_offset 8
	subl	$56, %esp
.Ltmp390:
	.cfi_def_cfa_offset 64
.Ltmp391:
	.cfi_offset %esi, -8
	movb	72(%esp), %al
	movl	68(%esp), %ecx
	movl	64(%esp), %edx
	movl	%edx, 52(%esp)
	movl	%ecx, 48(%esp)
	andb	$1, %al
	movb	%al, 47(%esp)
	movl	48(%esp), %eax
	movl	52(%esp), %ecx
	movl	(%ecx), %edx
	movl	4(%ecx), %ecx
	shll	$4, %edx
	shll	$4, %ecx
	movzbl	47(%esp), %esi
	imull	 $255, %esi
	movl	%esi, 28(%esp)
	movl	%ecx, 8(%esp)
	movl	%edx, 4(%esp)
	movl	%eax, (%esp)
	movl	$255, 24(%esp)
	movl	$0, 20(%esp)
	movl	$16, 16(%esp)
	movl	$16, 12(%esp)
	calll	Framebuffer$fillrect
	movl	52(%esp), %eax
	movl	%eax, (%esp)
	calll	Segment$has_next
	testb	$1, %al
	je	.LBB134_2
# BB#1:                                 # %if_fkappssnakesnake_mSegment$draw_l22_n5587___SUCC
	movl	52(%esp), %eax
	movl	8(%eax), %eax
	movl	48(%esp), %ecx
	movl	%ecx, 4(%esp)
	movl	%eax, (%esp)
	movl	$0, 8(%esp)
	calll	Segment$draw
.LBB134_2:                              # %if_fkappssnakesnake_mSegment$draw_l22_n5587___DONE
	addl	$56, %esp
	popl	%esi
	retl
.Ltmp392:
	.size	Segment$draw, .Ltmp392-Segment$draw
	.cfi_endproc

	.globl	Segment$clear
	.align	16, 0x90
	.type	Segment$clear,@function
Segment$clear:                          # @"Segment$clear"
	.cfi_startproc
# BB#0:
	subl	$44, %esp
.Ltmp393:
	.cfi_def_cfa_offset 48
	movl	52(%esp), %eax
	movl	48(%esp), %ecx
	movl	%ecx, 40(%esp)
	movl	%eax, 36(%esp)
	movl	40(%esp), %ecx
	movl	(%ecx), %edx
	movl	4(%ecx), %ecx
	shll	$4, %edx
	shll	$4, %ecx
	movl	%ecx, 8(%esp)
	movl	%edx, 4(%esp)
	movl	%eax, (%esp)
	movl	$0, 28(%esp)
	movl	$0, 24(%esp)
	movl	$0, 20(%esp)
	movl	$16, 16(%esp)
	movl	$16, 12(%esp)
	calll	Framebuffer$fillrect
	addl	$44, %esp
	retl
.Ltmp394:
	.size	Segment$clear, .Ltmp394-Segment$clear
	.cfi_endproc

	.globl	Snake$$new
	.align	16, 0x90
	.type	Snake$$new,@function
Snake$$new:                             # @"Snake$$new"
	.cfi_startproc
# BB#0:
	pushl	%esi
.Ltmp395:
	.cfi_def_cfa_offset 8
	subl	$24, %esp
.Ltmp396:
	.cfi_def_cfa_offset 32
.Ltmp397:
	.cfi_offset %esi, -8
	movl	$12, (%esp)
	calll	malloc
	movl	%eax, %esi
	movl	%esi, 20(%esp)
	movl	$5, 4(%esp)
	movl	$5, (%esp)
	calll	Segment$$new
	movl	%eax, (%esi)
	movl	20(%esp), %eax
	movl	(%eax), %esi
	movl	$4, 4(%esp)
	movl	$5, (%esp)
	calll	Segment$$new
	movl	%eax, 8(%esi)
	movl	20(%esp), %eax
	movl	$3, 4(%eax)
	movl	20(%esp), %eax
	addl	$24, %esp
	popl	%esi
	retl
.Ltmp398:
	.size	Snake$$new, .Ltmp398-Snake$$new
	.cfi_endproc

	.globl	Snake$draw
	.align	16, 0x90
	.type	Snake$draw,@function
Snake$draw:                             # @"Snake$draw"
	.cfi_startproc
# BB#0:
	subl	$28, %esp
.Ltmp399:
	.cfi_def_cfa_offset 32
	movl	36(%esp), %eax
	movl	32(%esp), %ecx
	movl	%ecx, 24(%esp)
	movl	%eax, 20(%esp)
	movl	24(%esp), %ecx
	movl	(%ecx), %ecx
	movl	%eax, 4(%esp)
	movl	%ecx, (%esp)
	movl	$1, 8(%esp)
	calll	Segment$draw
	addl	$28, %esp
	retl
.Ltmp400:
	.size	Snake$draw, .Ltmp400-Snake$draw
	.cfi_endproc

	.globl	Snake$update
	.align	16, 0x90
	.type	Snake$update,@function
Snake$update:                           # @"Snake$update"
	.cfi_startproc
# BB#0:
	pushl	%ebp
.Ltmp401:
	.cfi_def_cfa_offset 8
.Ltmp402:
	.cfi_offset %ebp, -8
	movl	%esp, %ebp
.Ltmp403:
	.cfi_def_cfa_register %ebp
	subl	$24, %esp
	movl	12(%ebp), %eax
	movl	8(%ebp), %ecx
	movl	%ecx, -4(%ebp)
	movl	%eax, -8(%ebp)
	movl	-4(%ebp), %eax
	movl	(%eax), %eax
	movl	(%eax), %eax
	movl	%eax, -12(%ebp)
	movl	-4(%ebp), %eax
	movl	(%eax), %eax
	movl	4(%eax), %eax
	movl	%eax, -16(%ebp)
	movl	-4(%ebp), %eax
	movl	(%eax), %eax
	jmp	.LBB138_2
	.align	16, 0x90
.LBB138_1:                              # %fkappssnakesnake_mSnake$update_l52_n5664___LOOP___HEAD
                                        #   in Loop: Header=BB138_2 Depth=1
	movl	-20(%ebp), %eax
	movl	8(%eax), %eax
.LBB138_2:                              # %fkappssnakesnake_mSnake$update_l52_n5664___LOOP___HEAD
                                        # =>This Inner Loop Header: Depth=1
	movl	%eax, -20(%ebp)
	movl	8(%eax), %eax
	cmpl	$0, 8(%eax)
	jne	.LBB138_1
# BB#3:                                 # %fkappssnakesnake_mSnake$update_l52_n5664___LOOP___END
	movl	-20(%ebp), %eax
	movl	8(%eax), %eax
	movl	-8(%ebp), %ecx
	subl	$16, %esp
	movl	%ecx, 4(%esp)
	movl	%eax, (%esp)
	calll	Segment$clear
	addl	$16, %esp
	movl	-20(%ebp), %eax
	movl	8(%eax), %eax
	movl	-4(%ebp), %ecx
	movl	(%ecx), %ecx
	movl	%ecx, 8(%eax)
	movl	-4(%ebp), %eax
	movl	-20(%ebp), %ecx
	movl	8(%ecx), %ecx
	movl	%ecx, (%eax)
	movl	-20(%ebp), %eax
	movl	$0, 8(%eax)
	movl	-4(%ebp), %eax
	cmpl	$0, 4(%eax)
	jne	.LBB138_5
# BB#4:                                 # %if_fkappssnakesnake_mSnake$update_l62_n5713___SUCC
	decl	-16(%ebp)
	jmp	.LBB138_10
.LBB138_5:                              # %if_fkappssnakesnake_mSnake$update_l62_n5713___FAIL
	movl	-4(%ebp), %eax
	cmpl	$1, 4(%eax)
	jne	.LBB138_7
# BB#6:                                 # %if_fkappssnakesnake_mSnake$update_l62_n5722___SUCC
	incl	-16(%ebp)
	jmp	.LBB138_10
.LBB138_7:                              # %if_fkappssnakesnake_mSnake$update_l62_n5722___FAIL
	movl	-4(%ebp), %eax
	cmpl	$2, 4(%eax)
	jne	.LBB138_9
# BB#8:                                 # %if_fkappssnakesnake_mSnake$update_l62_n5731___SUCC
	decl	-12(%ebp)
	jmp	.LBB138_10
.LBB138_9:                              # %if_fkappssnakesnake_mSnake$update_l62_n5731___FAIL
	incl	-12(%ebp)
.LBB138_10:                             # %if_fkappssnakesnake_mSnake$update_l62_n5713___DONE
	movl	-4(%ebp), %eax
	movl	(%eax), %eax
	movl	-12(%ebp), %ecx
	movl	%ecx, (%eax)
	movl	-4(%ebp), %eax
	movl	(%eax), %eax
	movl	-16(%ebp), %ecx
	movl	%ecx, 4(%eax)
	movl	-4(%ebp), %eax
	movl	(%eax), %eax
	cmpl	$0, (%eax)
	js	.LBB138_11
# BB#13:                                # %if_fkappssnakesnake_mSnake$update_l75_n5755___FAIL
	movl	-4(%ebp), %eax
	movl	(%eax), %eax
	cmpl	$0, 4(%eax)
	js	.LBB138_11
# BB#14:                                # %if_fkappssnakesnake_mSnake$update_l75_n5755___DONE
	movl	%esp, %ecx
	leal	-16(%ecx), %eax
	movl	%eax, %esp
	movl	-4(%ebp), %edx
	movl	(%edx), %edx
	movl	%edx, -16(%ecx)
	cmpl	$0, 8(%edx)
	je	.LBB138_18
	.align	16, 0x90
.LBB138_15:                             # %fkappssnakesnake_mSnake$update_l82_n5772___LOOP___HEAD
                                        # =>This Inner Loop Header: Depth=1
	movl	(%eax), %ecx
	movl	8(%ecx), %ecx
	movl	%ecx, (%eax)
	movl	(%ecx), %ecx
	movl	-4(%ebp), %edx
	movl	(%edx), %edx
	cmpl	(%edx), %ecx
	jne	.LBB138_17
# BB#16:                                # %if_fkappssnakesnake_mSnake$update_l84_n5792___SUCC
                                        #   in Loop: Header=BB138_15 Depth=1
	movl	(%eax), %ecx
	movl	4(%ecx), %ecx
	movl	-4(%ebp), %edx
	movl	(%edx), %edx
	cmpl	4(%edx), %ecx
	je	.LBB138_11
.LBB138_17:                             # %if_fkappssnakesnake_mSnake$update_l84_n5792___DONE
                                        #   in Loop: Header=BB138_15 Depth=1
	movl	(%eax), %ecx
	cmpl	$0, 8(%ecx)
	jne	.LBB138_15
.LBB138_18:                             # %fkappssnakesnake_mSnake$update_l82_n5772___LOOP___END
	movl	-4(%ebp), %eax
	movl	-8(%ebp), %ecx
	subl	$16, %esp
	movl	%ecx, 4(%esp)
	movl	%eax, (%esp)
	calll	Snake$draw
	addl	$16, %esp
	xorl	%eax, %eax
	jmp	.LBB138_12
.LBB138_11:                             # %if_fkappssnakesnake_mSnake$update_l75_n5755___SUCC
	movb	$1, %al
.LBB138_12:                             # %if_fkappssnakesnake_mSnake$update_l75_n5755___SUCC
	movl	%ebp, %esp
	popl	%ebp
	retl
.Ltmp404:
	.size	Snake$update, .Ltmp404-Snake$update
	.cfi_endproc

	.globl	Snake$grow
	.align	16, 0x90
	.type	Snake$grow,@function
Snake$grow:                             # @"Snake$grow"
	.cfi_startproc
# BB#0:
	pushl	%esi
.Ltmp405:
	.cfi_def_cfa_offset 8
	subl	$24, %esp
.Ltmp406:
	.cfi_def_cfa_offset 32
.Ltmp407:
	.cfi_offset %esi, -8
	movl	32(%esp), %eax
	movl	%eax, 20(%esp)
	movl	(%eax), %eax
	jmp	.LBB139_2
	.align	16, 0x90
.LBB139_1:                              # %fkappssnakesnake_mSnake$grow_l96_n5822___LOOP___HEAD
                                        #   in Loop: Header=BB139_2 Depth=1
	movl	16(%esp), %eax
	movl	8(%eax), %eax
.LBB139_2:                              # %fkappssnakesnake_mSnake$grow_l96_n5822___LOOP___HEAD
                                        # =>This Inner Loop Header: Depth=1
	movl	%eax, 16(%esp)
	cmpl	$0, 8(%eax)
	jne	.LBB139_1
# BB#3:                                 # %fkappssnakesnake_mSnake$grow_l96_n5822___LOOP___END
	movl	16(%esp), %esi
	movl	(%esi), %eax
	movl	4(%esi), %ecx
	movl	%ecx, 4(%esp)
	movl	%eax, (%esp)
	calll	Segment$$new
	movl	%eax, 8(%esi)
	addl	$24, %esp
	popl	%esi
	retl
.Ltmp408:
	.size	Snake$grow, .Ltmp408-Snake$grow
	.cfi_endproc

	.globl	snake_run
	.align	16, 0x90
	.type	snake_run,@function
snake_run:                              # @snake_run
	.cfi_startproc
# BB#0:
	pushl	%ebp
.Ltmp409:
	.cfi_def_cfa_offset 8
.Ltmp410:
	.cfi_offset %ebp, -8
	movl	%esp, %ebp
.Ltmp411:
	.cfi_def_cfa_register %ebp
	pushl	%ebx
	pushl	%edi
	pushl	%esi
	subl	$44, %esp
.Ltmp412:
	.cfi_offset %esi, -20
.Ltmp413:
	.cfi_offset %edi, -16
.Ltmp414:
	.cfi_offset %ebx, -12
	movl	8(%ebp), %eax
	movl	%eax, -16(%ebp)
	movl	gvar_fin_mu_lu_n8__kterm, %eax
	subl	$16, %esp
	movl	%eax, (%esp)
	movl	$.Lstrglobal_fkappssnakesnake_msnake_run_l106_n5853, 4(%esp)
	calll	Terminal$printl
	addl	$16, %esp
	calll	s_lfsr_seed_time
	calll	Snake$$new
	movl	%eax, -20(%ebp)
	movl	gvar_fin_mu_lu_n22__mbinfo, %eax
	subl	$16, %esp
	movl	%eax, (%esp)
	calll	Framebuffer$$from_mbinfo
	addl	$16, %esp
	movl	%eax, -24(%ebp)
	subl	$16, %esp
	movl	%eax, (%esp)
	movl	$0, 12(%esp)
	movl	$0, 8(%esp)
	movl	$0, 4(%esp)
	calll	Framebuffer$fill
	addl	$16, %esp
	movl	gvar_fin_mu_lu_n8__kterm, %eax
	movl	24(%eax), %eax
	movl	%eax, -28(%ebp)
	movl	gvar_firqio_mu_lu_n5__system_kbdstate, %eax
	subl	$16, %esp
	movl	%eax, (%esp)
	movl	$_snake_handler, 4(%esp)
	calll	KeyboardState$set_handler
	addl	$16, %esp
	movl	gvar_fin_mu_lu_n8__kterm, %eax
	movl	$_snake_term_null_handler, 24(%eax)
	movb	$1, gvar_fkappssnakesnake_mu_lu_n14__snake_running
	movl	gvar_fin_mu_lu_n22__mbinfo, %eax
	movl	24(%eax), %eax
	movl	%eax, %ecx
	sarl	$31, %ecx
	shrl	$28, %ecx
	addl	%eax, %ecx
	sarl	$4, %ecx
	movl	%ecx, -44(%ebp)
	movl	gvar_fin_mu_lu_n22__mbinfo, %eax
	movl	28(%eax), %eax
	movl	%eax, %ecx
	sarl	$31, %ecx
	shrl	$28, %ecx
	addl	%eax, %ecx
	sarl	$4, %ecx
	movl	%ecx, -48(%ebp)
	cmpl	$33, -44(%ebp)
	jl	.LBB140_2
# BB#1:                                 # %if_fkappssnakesnake_msnake_run_l126_n5900___SUCC
	movl	$32, -44(%ebp)
	movl	gvar_fin_mu_lu_n8__kterm, %eax
	subl	$16, %esp
	movl	%eax, (%esp)
	movl	$.Lstrglobal_fkappssnakesnake_msnake_run_l128_n5904, 4(%esp)
	calll	Terminal$printl
	addl	$16, %esp
.LBB140_2:                              # %if_fkappssnakesnake_msnake_run_l126_n5900___DONE
	cmpl	$33, -48(%ebp)
	jl	.LBB140_4
# BB#3:                                 # %if_fkappssnakesnake_msnake_run_l131_n5910___SUCC
	movl	$32, -48(%ebp)
	movl	gvar_fin_mu_lu_n8__kterm, %eax
	subl	$16, %esp
	movl	%eax, (%esp)
	movl	$.Lstrglobal_fkappssnakesnake_msnake_run_l133_n5914, 4(%esp)
	calll	Terminal$printl
	addl	$16, %esp
.LBB140_4:                              # %if_fkappssnakesnake_msnake_run_l131_n5910___DONE
	movl	%esp, %ebx
	leal	-16(%ebx), %esi
	movl	%esi, %esp
	movl	-44(%ebp), %eax
	decl	%eax
	subl	$16, %esp
	movl	%eax, 4(%esp)
	movl	$1, (%esp)
	calll	s_randint
	addl	$16, %esp
	movl	%eax, -16(%ebx)
	movl	%esp, %edi
	leal	-16(%edi), %eax
	movl	%eax, -52(%ebp)         # 4-byte Spill
	movl	%eax, %esp
	movl	-48(%ebp), %eax
	decl	%eax
	subl	$16, %esp
	movl	%eax, 4(%esp)
	movl	$1, (%esp)
	calll	s_randint
	addl	$16, %esp
	movl	%eax, -16(%edi)
	movl	-24(%ebp), %ecx
	movl	-16(%ebx), %edx
	shll	$4, %edx
	shll	$4, %eax
	subl	$32, %esp
	movl	%eax, 8(%esp)
	movl	%edx, 4(%esp)
	movl	%ecx, (%esp)
	movl	$0, 28(%esp)
	movl	$0, 24(%esp)
	movl	$255, 20(%esp)
	movl	$16, 16(%esp)
	movl	$16, 12(%esp)
	calll	Framebuffer$fillrect
	addl	$32, %esp
	movl	-24(%ebp), %eax
	movl	-44(%ebp), %ecx
	shll	$4, %ecx
	movl	gvar_fin_mu_lu_n22__mbinfo, %edx
	movl	24(%edx), %edi
	movl	28(%edx), %edx
	subl	%ecx, %edi
	subl	$32, %esp
	movl	%edx, 16(%esp)
	movl	%edi, 12(%esp)
	movl	%ecx, 4(%esp)
	movl	%eax, (%esp)
	movl	$255, 28(%esp)
	movl	$255, 24(%esp)
	movl	$255, 20(%esp)
	movl	$0, 8(%esp)
	calll	Framebuffer$fillrect
	addl	$32, %esp
	movl	-24(%ebp), %eax
	movl	-48(%ebp), %ecx
	shll	$4, %ecx
	movl	gvar_fin_mu_lu_n22__mbinfo, %edx
	movl	24(%edx), %edi
	movl	28(%edx), %edx
	subl	%ecx, %edx
	subl	$32, %esp
	movl	%edx, 16(%esp)
	movl	%edi, 12(%esp)
	movl	%ecx, 8(%esp)
	movl	%eax, (%esp)
	movl	$255, 28(%esp)
	movl	$255, 24(%esp)
	movl	$255, 20(%esp)
	movl	$0, 4(%esp)
	calll	Framebuffer$fillrect
	addl	$32, %esp
	movl	%esp, %eax
	leal	-16(%eax), %ebx
	movl	%ebx, %esp
	movl	$0, -16(%eax)
	movb	gvar_fkappssnakesnake_mu_lu_n14__snake_running, %al
	testb	%al, %al
	je	.LBB140_33
# BB#5:
	movl	-52(%ebp), %edi         # 4-byte Reload
	.align	16, 0x90
.LBB140_6:                              # %fkappssnakesnake_msnake_run_l145_n5984___LOOP___HEAD
                                        # =>This Loop Header: Depth=1
                                        #     Child Loop BB140_9 Depth 2
	movl	gvar_firqio_mu_lu_n6__pic_ticks+4, %ecx
	movl	gvar_firqio_mu_lu_n6__pic_ticks, %eax
	addl	$1, %eax
	adcl	$0, %ecx
	movl	%eax, -40(%ebp)
	movl	%ecx, -36(%ebp)
	cmpl	gvar_firqio_mu_lu_n6__pic_ticks, %eax
	setbe	%al
	cmpl	gvar_firqio_mu_lu_n6__pic_ticks+4, %ecx
	setle	%cl
	je	.LBB140_8
# BB#7:                                 # %fkappssnakesnake_msnake_run_l145_n5984___LOOP___HEAD
                                        #   in Loop: Header=BB140_6 Depth=1
	movb	%cl, %al
.LBB140_8:                              # %fkappssnakesnake_msnake_run_l145_n5984___LOOP___HEAD
                                        #   in Loop: Header=BB140_6 Depth=1
	testb	%al, %al
	jne	.LBB140_12
	.align	16, 0x90
.LBB140_9:                              # %fkappssnakesnake_msnake_run_l147_n5990___LOOP___HEAD
                                        #   Parent Loop BB140_6 Depth=1
                                        # =>  This Inner Loop Header: Depth=2
	movl	-36(%ebp), %ecx
	movl	gvar_firqio_mu_lu_n6__pic_ticks, %eax
	cmpl	-40(%ebp), %eax
	setb	%al
	cmpl	gvar_firqio_mu_lu_n6__pic_ticks+4, %ecx
	setg	%cl
	je	.LBB140_11
# BB#10:                                # %fkappssnakesnake_msnake_run_l147_n5990___LOOP___HEAD
                                        #   in Loop: Header=BB140_9 Depth=2
	movb	%cl, %al
.LBB140_11:                             # %fkappssnakesnake_msnake_run_l147_n5990___LOOP___HEAD
                                        #   in Loop: Header=BB140_9 Depth=2
	testb	%al, %al
	jne	.LBB140_9
.LBB140_12:                             # %fkappssnakesnake_msnake_run_l147_n5990___LOOP___END
                                        #   in Loop: Header=BB140_6 Depth=1
	movl	-20(%ebp), %eax
	movl	-24(%ebp), %ecx
	subl	$16, %esp
	movl	%ecx, 4(%esp)
	movl	%eax, (%esp)
	calll	Snake$update
	addl	$16, %esp
	testb	$1, %al
	je	.LBB140_14
# BB#13:                                # %if_fkappssnakesnake_msnake_run_l151_n6001___SUCC
                                        #   in Loop: Header=BB140_6 Depth=1
	movb	$0, gvar_fkappssnakesnake_mu_lu_n14__snake_running
.LBB140_14:                             # %if_fkappssnakesnake_msnake_run_l151_n6001___DONE
                                        #   in Loop: Header=BB140_6 Depth=1
	movl	-20(%ebp), %eax
	movl	(%eax), %eax
	movl	(%eax), %eax
	cmpl	-44(%ebp), %eax
	jge	.LBB140_16
# BB#15:                                # %if_fkappssnakesnake_msnake_run_l156_n6011___FAIL
                                        #   in Loop: Header=BB140_6 Depth=1
	movl	-20(%ebp), %eax
	movl	(%eax), %eax
	movl	4(%eax), %eax
	cmpl	-48(%ebp), %eax
	jl	.LBB140_17
.LBB140_16:                             # %if_fkappssnakesnake_msnake_run_l156_n6021___SUCC
                                        #   in Loop: Header=BB140_6 Depth=1
	movb	$0, gvar_fkappssnakesnake_mu_lu_n14__snake_running
.LBB140_17:                             # %if_fkappssnakesnake_msnake_run_l156_n6011___DONE
                                        #   in Loop: Header=BB140_6 Depth=1
	movl	gvar_firqio_mu_lu_n5__system_kbdstate, %eax
	subl	$16, %esp
	movl	%eax, (%esp)
	movl	$72, 4(%esp)
	calll	KeyboardState$getkey
	addl	$16, %esp
	testb	$1, %al
	je	.LBB140_20
# BB#18:                                # %if_fkappssnakesnake_msnake_run_l162_n6027___SUCC
                                        #   in Loop: Header=BB140_6 Depth=1
	movl	-20(%ebp), %eax
	cmpl	$1, 4(%eax)
	je	.LBB140_29
# BB#19:                                # %if_fkappssnakesnake_msnake_run_l163_n6033___SUCC
                                        #   in Loop: Header=BB140_6 Depth=1
	movl	-20(%ebp), %eax
	movl	$0, 4(%eax)
	jmp	.LBB140_29
	.align	16, 0x90
.LBB140_20:                             # %if_fkappssnakesnake_msnake_run_l162_n6027___FAIL
                                        #   in Loop: Header=BB140_6 Depth=1
	movl	gvar_firqio_mu_lu_n5__system_kbdstate, %eax
	subl	$16, %esp
	movl	%eax, (%esp)
	movl	$80, 4(%esp)
	calll	KeyboardState$getkey
	addl	$16, %esp
	testb	$1, %al
	je	.LBB140_23
# BB#21:                                # %if_fkappssnakesnake_msnake_run_l162_n6040___SUCC
                                        #   in Loop: Header=BB140_6 Depth=1
	movl	-20(%ebp), %eax
	cmpl	$0, 4(%eax)
	je	.LBB140_29
# BB#22:                                # %if_fkappssnakesnake_msnake_run_l167_n6046___SUCC
                                        #   in Loop: Header=BB140_6 Depth=1
	movl	-20(%ebp), %eax
	movl	$1, 4(%eax)
	jmp	.LBB140_29
	.align	16, 0x90
.LBB140_23:                             # %if_fkappssnakesnake_msnake_run_l162_n6040___FAIL
                                        #   in Loop: Header=BB140_6 Depth=1
	movl	gvar_firqio_mu_lu_n5__system_kbdstate, %eax
	subl	$16, %esp
	movl	%eax, (%esp)
	movl	$75, 4(%esp)
	calll	KeyboardState$getkey
	addl	$16, %esp
	testb	$1, %al
	je	.LBB140_26
# BB#24:                                # %if_fkappssnakesnake_msnake_run_l162_n6053___SUCC
                                        #   in Loop: Header=BB140_6 Depth=1
	movl	-20(%ebp), %eax
	cmpl	$3, 4(%eax)
	je	.LBB140_29
# BB#25:                                # %if_fkappssnakesnake_msnake_run_l171_n6059___SUCC
                                        #   in Loop: Header=BB140_6 Depth=1
	movl	-20(%ebp), %eax
	movl	$2, 4(%eax)
	jmp	.LBB140_29
.LBB140_26:                             # %if_fkappssnakesnake_msnake_run_l162_n6053___FAIL
                                        #   in Loop: Header=BB140_6 Depth=1
	movl	gvar_firqio_mu_lu_n5__system_kbdstate, %eax
	subl	$16, %esp
	movl	%eax, (%esp)
	movl	$77, 4(%esp)
	calll	KeyboardState$getkey
	addl	$16, %esp
	testb	$1, %al
	je	.LBB140_29
# BB#27:                                # %if_fkappssnakesnake_msnake_run_l162_n6066___SUCC
                                        #   in Loop: Header=BB140_6 Depth=1
	movl	-20(%ebp), %eax
	cmpl	$2, 4(%eax)
	je	.LBB140_29
# BB#28:                                # %if_fkappssnakesnake_msnake_run_l175_n6072___SUCC
                                        #   in Loop: Header=BB140_6 Depth=1
	movl	-20(%ebp), %eax
	movl	$3, 4(%eax)
	.align	16, 0x90
.LBB140_29:                             # %if_fkappssnakesnake_msnake_run_l162_n6027___DONE
                                        #   in Loop: Header=BB140_6 Depth=1
	movl	-20(%ebp), %eax
	movl	(%eax), %eax
	movl	(%eax), %eax
	cmpl	(%esi), %eax
	jne	.LBB140_32
# BB#30:                                # %if_fkappssnakesnake_msnake_run_l180_n6083___SUCC
                                        #   in Loop: Header=BB140_6 Depth=1
	movl	-20(%ebp), %eax
	movl	(%eax), %eax
	movl	4(%eax), %eax
	movl	-52(%ebp), %ecx         # 4-byte Reload
	cmpl	(%ecx), %eax
	jne	.LBB140_32
# BB#31:                                # %if_fkappssnakesnake_msnake_run_l181_n6091___SUCC
                                        #   in Loop: Header=BB140_6 Depth=1
	movl	-20(%ebp), %eax
	subl	$16, %esp
	movl	%eax, (%esp)
	calll	Snake$grow
	addl	$16, %esp
	movl	-24(%ebp), %eax
	movl	(%esi), %ecx
	shll	$4, %ecx
	movl	(%edi), %edx
	shll	$4, %edx
	subl	$32, %esp
	movl	%edx, 8(%esp)
	movl	%ecx, 4(%esp)
	movl	%eax, (%esp)
	movl	$0, 28(%esp)
	movl	$0, 24(%esp)
	movl	$0, 20(%esp)
	movl	$16, 16(%esp)
	movl	$16, 12(%esp)
	calll	Framebuffer$fillrect
	addl	$32, %esp
	movl	-44(%ebp), %eax
	decl	%eax
	subl	$16, %esp
	movl	%eax, 4(%esp)
	movl	$1, (%esp)
	calll	s_randint
	addl	$16, %esp
	movl	%eax, (%esi)
	movl	-48(%ebp), %eax
	decl	%eax
	subl	$16, %esp
	movl	%eax, 4(%esp)
	movl	$1, (%esp)
	calll	s_randint
	addl	$16, %esp
	movl	%eax, (%edi)
	movl	-24(%ebp), %ecx
	movl	(%esi), %edx
	shll	$4, %edx
	shll	$4, %eax
	subl	$32, %esp
	movl	%eax, 8(%esp)
	movl	%edx, 4(%esp)
	movl	%ecx, (%esp)
	movl	$0, 28(%esp)
	movl	$0, 24(%esp)
	movl	$255, 20(%esp)
	movl	$16, 16(%esp)
	movl	$16, 12(%esp)
	calll	Framebuffer$fillrect
	addl	$32, %esp
	incl	(%ebx)
.LBB140_32:                             # %if_fkappssnakesnake_msnake_run_l180_n6083___DONE
                                        #   in Loop: Header=BB140_6 Depth=1
	movb	gvar_fkappssnakesnake_mu_lu_n14__snake_running, %al
	testb	%al, %al
	jne	.LBB140_6
.LBB140_33:                             # %fkappssnakesnake_msnake_run_l145_n5984___LOOP___END
	movl	gvar_fin_mu_lu_n8__kterm, %eax
	movl	-28(%ebp), %ecx
	movl	%ecx, 24(%eax)
	movl	gvar_fin_mu_lu_n8__kterm, %eax
	subl	$16, %esp
	movl	%eax, (%esp)
	calll	Terminal$blank
	addl	$16, %esp
	movl	gvar_fin_mu_lu_n8__kterm, %eax
	subl	$16, %esp
	movl	%eax, (%esp)
	movl	$.Lstrglobal_fkappssnakesnake_msnake_run_l195_n6143, 4(%esp)
	calll	Terminal$printl
	addl	$16, %esp
	movl	gvar_fin_mu_lu_n8__kterm, %eax
	subl	$16, %esp
	movl	%eax, (%esp)
	movl	$.Lstrglobal_fkappssnakesnake_msnake_run_l196_n6148, 4(%esp)
	calll	Terminal$print
	addl	$16, %esp
	movl	gvar_fin_mu_lu_n8__kterm, %eax
	movl	(%ebx), %ecx
	subl	$16, %esp
	movl	%ecx, 4(%esp)
	movl	%eax, (%esp)
	calll	Terminal$printi
	leal	-12(%ebp), %esp
	popl	%esi
	popl	%edi
	popl	%ebx
	popl	%ebp
	retl
.Ltmp415:
	.size	snake_run, .Ltmp415-snake_run
	.cfi_endproc

	.globl	_snake_handler
	.align	16, 0x90
	.type	_snake_handler,@function
_snake_handler:                         # @_snake_handler
	.cfi_startproc
# BB#0:
	subl	$28, %esp
.Ltmp416:
	.cfi_def_cfa_offset 32
	movb	36(%esp), %al
	movl	32(%esp), %ecx
	movl	%ecx, 24(%esp)
	andb	$1, %al
	movb	%al, 23(%esp)
	movl	24(%esp), %eax
	cmpl	$16, %eax
	sete	%cl
	cmpl	$27, %eax
	sete	%al
	movzbl	%al, %eax
	movl	%eax, 4(%esp)
	movzbl	%cl, %eax
	movl	%eax, (%esp)
	calll	bool$or
	testb	$1, %al
	je	.LBB141_2
# BB#1:                                 # %if_fkappssnakesnake_m_snake_handler_l201_n6163___SUCC
	movb	$0, gvar_fkappssnakesnake_mu_lu_n14__snake_running
.LBB141_2:                              # %if_fkappssnakesnake_m_snake_handler_l201_n6163___DONE
	addl	$28, %esp
	retl
.Ltmp417:
	.size	_snake_handler, .Ltmp417-_snake_handler
	.cfi_endproc

	.globl	_snake_term_null_handler
	.align	16, 0x90
	.type	_snake_term_null_handler,@function
_snake_term_null_handler:               # @_snake_term_null_handler
	.cfi_startproc
# BB#0:
	retl
.Ltmp418:
	.size	_snake_term_null_handler, .Ltmp418-_snake_term_null_handler
	.cfi_endproc

	.globl	KConsoleCommand$$new
	.align	16, 0x90
	.type	KConsoleCommand$$new,@function
KConsoleCommand$$new:                   # @"KConsoleCommand$$new"
	.cfi_startproc
# BB#0:
	subl	$28, %esp
.Ltmp419:
	.cfi_def_cfa_offset 32
	movl	40(%esp), %eax
	movl	36(%esp), %ecx
	movl	32(%esp), %edx
	movl	%edx, 24(%esp)
	movl	%ecx, 20(%esp)
	movl	%eax, 16(%esp)
	movl	$32, (%esp)
	calll	malloc
	movl	%eax, 12(%esp)
	movl	24(%esp), %ecx
	movl	%ecx, (%eax)
	movl	12(%esp), %eax
	movl	20(%esp), %ecx
	movl	%ecx, 4(%eax)
	movl	12(%esp), %eax
	movl	16(%esp), %ecx
	movl	%ecx, 8(%eax)
	movl	12(%esp), %eax
	movl	$0, 12(%eax)
	movl	12(%esp), %eax
	addl	$28, %esp
	retl
.Ltmp420:
	.size	KConsoleCommand$$new, .Ltmp420-KConsoleCommand$$new
	.cfi_endproc

	.globl	KConsoleCommand$run
	.align	16, 0x90
	.type	KConsoleCommand$run,@function
KConsoleCommand$run:                    # @"KConsoleCommand$run"
	.cfi_startproc
# BB#0:
	subl	$12, %esp
.Ltmp421:
	.cfi_def_cfa_offset 16
	movl	20(%esp), %eax
	movl	16(%esp), %ecx
	movl	%ecx, 8(%esp)
	movl	%eax, 4(%esp)
	movl	8(%esp), %ecx
	movl	%eax, (%esp)
	calll	*8(%ecx)
	addl	$12, %esp
	retl
.Ltmp422:
	.size	KConsoleCommand$run, .Ltmp422-KConsoleCommand$run
	.cfi_endproc

	.globl	console_disp_line
	.align	16, 0x90
	.type	console_disp_line,@function
console_disp_line:                      # @console_disp_line
	.cfi_startproc
# BB#0:
	subl	$12, %esp
.Ltmp423:
	.cfi_def_cfa_offset 16
	movl	gvar_fin_mu_lu_n8__kterm, %eax
	movl	%eax, (%esp)
	movl	$.Lstrglobal_fkappsconsole_mconsole_disp_line_l28_n6198, 4(%esp)
	calll	Terminal$print
	addl	$12, %esp
	retl
.Ltmp424:
	.size	console_disp_line, .Ltmp424-console_disp_line
	.cfi_endproc

	.globl	consolehandler
	.align	16, 0x90
	.type	consolehandler,@function
consolehandler:                         # @consolehandler
	.cfi_startproc
# BB#0:
	subl	$28, %esp
.Ltmp425:
	.cfi_def_cfa_offset 32
	movb	36(%esp), %al
	movl	32(%esp), %ecx
	movl	%ecx, 24(%esp)
	andb	$1, %al
	movb	%al, 23(%esp)
	movl	gvar_fkappsconsole_mu_lu_n15__console_buf, %eax
	movl	24(%esp), %ecx
	movzbl	23(%esp), %edx
	movl	%edx, 8(%esp)
	movl	%ecx, 4(%esp)
	movl	%eax, (%esp)
	calll	KeyboardBuf$handleevent
	addl	$28, %esp
	retl
.Ltmp426:
	.size	consolehandler, .Ltmp426-consolehandler
	.cfi_endproc

	.globl	console_submit
	.align	16, 0x90
	.type	console_submit,@function
console_submit:                         # @console_submit
	.cfi_startproc
# BB#0:
	pushl	%ebp
.Ltmp427:
	.cfi_def_cfa_offset 8
.Ltmp428:
	.cfi_offset %ebp, -8
	movl	%esp, %ebp
.Ltmp429:
	.cfi_def_cfa_register %ebp
	pushl	%edi
	pushl	%esi
	subl	$16, %esp
.Ltmp430:
	.cfi_offset %esi, -16
.Ltmp431:
	.cfi_offset %edi, -12
	movl	8(%ebp), %esi
	movl	%esi, -12(%ebp)
	subl	$16, %esp
	movl	$.Lstrglobal_fkappsconsole_mconsole_submit_l38_n6215, (%esp)
	calll	char
	addl	$16, %esp
	subl	$16, %esp
	movzbl	%al, %eax
	movl	%eax, 4(%esp)
	movl	%esi, (%esp)
	calll	cstr$index
	addl	$16, %esp
	cmpl	$-1, %eax
	jne	.LBB147_2
# BB#1:                                 # %if_fkappsconsole_mconsole_submit_l38_n6220___SUCC
	movl	-12(%ebp), %eax
	movl	%eax, -16(%ebp)
	movl	$.Lstrglobal_fkappsconsole_mconsole_submit_l40_n6222, -20(%ebp)
	jmp	.LBB147_3
.LBB147_2:                              # %if_fkappsconsole_mconsole_submit_l38_n6220___FAIL
	movl	%esp, %esi
	leal	-16(%esi), %eax
	movl	%eax, %esp
	movl	-12(%ebp), %edi
	subl	$16, %esp
	movl	$.Lstrglobal_fkappsconsole_mconsole_submit_l42_n6230, (%esp)
	calll	char
	addl	$16, %esp
	subl	$16, %esp
	movzbl	%al, %eax
	movl	%eax, 4(%esp)
	movl	%edi, (%esp)
	calll	cstr$index
	addl	$16, %esp
	movl	%eax, -16(%esi)
	incl	%eax
	subl	$16, %esp
	movl	%eax, (%esp)
	calll	malloc
	addl	$16, %esp
	movl	%eax, -16(%ebp)
	movl	-12(%ebp), %ecx
	movl	-16(%esi), %edx
	subl	$16, %esp
	movl	%edx, 8(%esp)
	movl	%eax, 4(%esp)
	movl	%ecx, (%esp)
	calll	memcpy
	addl	$16, %esp
	movl	-16(%ebp), %eax
	movl	-16(%esi), %ecx
	movb	$0, (%eax,%ecx)
	movl	-12(%ebp), %eax
	movl	-16(%esi), %ecx
	incl	%ecx
	subl	$16, %esp
	movl	%ecx, 4(%esp)
	movl	%eax, (%esp)
	calll	ptr$offset
	addl	$16, %esp
	movl	%eax, -20(%ebp)
.LBB147_3:                              # %if_fkappsconsole_mconsole_submit_l38_n6220___DONE
	movl	%esp, %edi
	leal	-16(%edi), %esi
	movl	%esi, %esp
	movl	gvar_fkappsconsole_mu_lu_n18__kcommand_head, %eax
	movl	-16(%ebp), %ecx
	subl	$16, %esp
	movl	%ecx, 4(%esp)
	movl	%eax, (%esp)
	calll	get_command
	addl	$16, %esp
	movl	%eax, -16(%edi)
	testl	%eax, %eax
	je	.LBB147_5
# BB#4:                                 # %if_fkappsconsole_mconsole_submit_l49_n6269___SUCC
	movl	(%esi), %eax
	movl	%eax, gvar_fkappsconsole_mu_lu_n16__command_to_run
	movl	-20(%ebp), %eax
	movl	%eax, gvar_fkappsconsole_mu_lu_n17__command_args
	jmp	.LBB147_6
.LBB147_5:                              # %if_fkappsconsole_mconsole_submit_l49_n6269___FAIL
	movl	gvar_fin_mu_lu_n8__kterm, %eax
	subl	$16, %esp
	movl	%eax, (%esp)
	movl	$.Lstrglobal_fkappsconsole_mconsole_submit_l53_n6274, 4(%esp)
	calll	Terminal$print
	addl	$16, %esp
	calll	console_disp_line
.LBB147_6:                              # %if_fkappsconsole_mconsole_submit_l49_n6269___DONE
	leal	-8(%ebp), %esp
	popl	%esi
	popl	%edi
	popl	%ebp
	retl
.Ltmp432:
	.size	console_submit, .Ltmp432-console_submit
	.cfi_endproc

	.globl	get_command
	.align	16, 0x90
	.type	get_command,@function
get_command:                            # @get_command
	.cfi_startproc
# BB#0:
	subl	$28, %esp
.Ltmp433:
	.cfi_def_cfa_offset 32
	movl	36(%esp), %eax
	movl	32(%esp), %ecx
	movl	%ecx, 24(%esp)
	movl	%eax, 20(%esp)
	movl	24(%esp), %eax
	jmp	.LBB148_1
	.align	16, 0x90
.LBB148_3:                              # %if_fkappsconsole_mget_command_l62_n6294___DONE
                                        #   in Loop: Header=BB148_1 Depth=1
	movl	16(%esp), %eax
	movl	12(%eax), %eax
.LBB148_1:                              # =>This Inner Loop Header: Depth=1
	movl	%eax, 16(%esp)
	testl	%eax, %eax
	je	.LBB148_4
# BB#2:                                 # %fkappsconsole_mget_command_l61_n6283___LOOP___HEAD
                                        #   in Loop: Header=BB148_1 Depth=1
	movl	16(%esp), %eax
	movl	(%eax), %eax
	movl	20(%esp), %ecx
	movl	%ecx, 4(%esp)
	movl	%eax, (%esp)
	calll	cstr$__eq__
	testb	$1, %al
	je	.LBB148_3
# BB#5:                                 # %if_fkappsconsole_mget_command_l62_n6294___SUCC
	movl	16(%esp), %eax
	addl	$28, %esp
	retl
.LBB148_4:                              # %fkappsconsole_mget_command_l61_n6283___LOOP___END
	xorl	%eax, %eax
	addl	$28, %esp
	retl
.Ltmp434:
	.size	get_command, .Ltmp434-get_command
	.cfi_endproc

	.globl	kc_help
	.align	16, 0x90
	.type	kc_help,@function
kc_help:                                # @kc_help
	.cfi_startproc
# BB#0:
	subl	$28, %esp
.Ltmp435:
	.cfi_def_cfa_offset 32
	movl	32(%esp), %eax
	movl	%eax, 24(%esp)
	movl	gvar_fin_mu_lu_n8__kterm, %eax
	movl	%eax, (%esp)
	movl	$.Lstrglobal_fkappsconsole_mkc_help_l70_n6310, 4(%esp)
	calll	Terminal$printl
	movl	gvar_fkappsconsole_mu_lu_n18__kcommand_head, %eax
	jmp	.LBB149_2
	.align	16, 0x90
.LBB149_1:                              # %fkappsconsole_mkc_help_l72_n6315___LOOP___HEAD
                                        #   in Loop: Header=BB149_2 Depth=1
	movl	gvar_fin_mu_lu_n8__kterm, %eax
	movl	%eax, (%esp)
	movl	$.Lstrglobal_fkappsconsole_mkc_help_l73_n6323, 4(%esp)
	calll	Terminal$print
	movl	gvar_fin_mu_lu_n8__kterm, %eax
	movl	20(%esp), %ecx
	movl	(%ecx), %ecx
	movl	%ecx, 4(%esp)
	movl	%eax, (%esp)
	calll	Terminal$print
	movl	gvar_fin_mu_lu_n8__kterm, %eax
	movl	%eax, (%esp)
	movl	$.Lstrglobal_fkappsconsole_mkc_help_l75_n6333, 4(%esp)
	calll	Terminal$print
	movl	gvar_fin_mu_lu_n8__kterm, %eax
	movl	20(%esp), %ecx
	movl	4(%ecx), %ecx
	movl	%ecx, 4(%esp)
	movl	%eax, (%esp)
	calll	Terminal$print
	movl	gvar_fin_mu_lu_n8__kterm, %eax
	movl	%eax, (%esp)
	movl	$.Lstrglobal_fkappsconsole_mkc_help_l77_n6343, 4(%esp)
	calll	Terminal$print
	movl	20(%esp), %eax
	movl	12(%eax), %eax
.LBB149_2:                              # %fkappsconsole_mkc_help_l72_n6315___LOOP___HEAD
                                        # =>This Inner Loop Header: Depth=1
	movl	%eax, 20(%esp)
	testl	%eax, %eax
	jne	.LBB149_1
# BB#3:                                 # %fkappsconsole_mkc_help_l72_n6315___LOOP___END
	addl	$28, %esp
	retl
.Ltmp436:
	.size	kc_help, .Ltmp436-kc_help
	.cfi_endproc

	.globl	kc_dumpargs
	.align	16, 0x90
	.type	kc_dumpargs,@function
kc_dumpargs:                            # @kc_dumpargs
	.cfi_startproc
# BB#0:
	subl	$12, %esp
.Ltmp437:
	.cfi_def_cfa_offset 16
	movl	16(%esp), %eax
	movl	%eax, 8(%esp)
	movl	gvar_fin_mu_lu_n8__kterm, %eax
	movl	%eax, (%esp)
	movl	$.Lstrglobal_fkappsconsole_mkc_dumpargs_l83_n6357, 4(%esp)
	calll	Terminal$print
	movl	gvar_fin_mu_lu_n8__kterm, %eax
	movl	8(%esp), %ecx
	movl	%ecx, 4(%esp)
	movl	%eax, (%esp)
	calll	Terminal$printl
	addl	$12, %esp
	retl
.Ltmp438:
	.size	kc_dumpargs, .Ltmp438-kc_dumpargs
	.cfi_endproc

	.globl	kc_mem
	.align	16, 0x90
	.type	kc_mem,@function
kc_mem:                                 # @kc_mem
	.cfi_startproc
# BB#0:
	subl	$12, %esp
.Ltmp439:
	.cfi_def_cfa_offset 16
	movl	16(%esp), %eax
	movl	%eax, 8(%esp)
	movl	gvar_fin_mu_lu_n8__kterm, %eax
	movl	%eax, (%esp)
	movl	$.Lstrglobal_fkappsconsole_mkc_mem_l88_n6366, 4(%esp)
	calll	Terminal$print
	movl	gvar_fin_mu_lu_n8__kterm, %eax
	movl	gvar_fmm_mu_lu_n1__mm_head, %ecx
	movl	%ecx, 4(%esp)
	movl	%eax, (%esp)
	calll	Terminal$dumphexi
	movl	gvar_fin_mu_lu_n8__kterm, %eax
	movl	%eax, (%esp)
	movl	$.Lstrglobal_fkappsconsole_mkc_mem_l90_n6375, 4(%esp)
	calll	Terminal$print
	movl	gvar_fin_mu_lu_n8__kterm, %eax
	movl	gvar_fmm_mu_lu_n2__mm_pos, %ecx
	movl	%ecx, 4(%esp)
	movl	%eax, (%esp)
	calll	Terminal$dumphexi
	movl	gvar_fin_mu_lu_n8__kterm, %eax
	movl	%eax, (%esp)
	movl	$.Lstrglobal_fkappsconsole_mkc_mem_l92_n6384, 4(%esp)
	calll	Terminal$print
	movl	gvar_fin_mu_lu_n8__kterm, %eax
	movl	gvar_fmm_mu_lu_n2__mm_pos, %ecx
	subl	gvar_fmm_mu_lu_n1__mm_head, %ecx
	movl	%ecx, 4(%esp)
	movl	%eax, (%esp)
	calll	Terminal$printi
	movl	gvar_fin_mu_lu_n8__kterm, %eax
	movl	%eax, (%esp)
	movl	$.Lstrglobal_fkappsconsole_mkc_mem_l94_n6396, 4(%esp)
	calll	Terminal$print
	addl	$12, %esp
	retl
.Ltmp440:
	.size	kc_mem, .Ltmp440-kc_mem
	.cfi_endproc

	.globl	kc_dump_multiboot
	.align	16, 0x90
	.type	kc_dump_multiboot,@function
kc_dump_multiboot:                      # @kc_dump_multiboot
	.cfi_startproc
# BB#0:
	subl	$12, %esp
.Ltmp441:
	.cfi_def_cfa_offset 16
	movl	16(%esp), %eax
	movl	%eax, 8(%esp)
	movl	gvar_fin_mu_lu_n10__multiboot_data_physaddr, %eax
	movl	gvar_fin_mu_lu_n9__base_vma, %ecx
	movl	%ecx, 4(%esp)
	movl	%eax, (%esp)
	calll	ptr$offset
	movl	%eax, (%esp)
	calll	RawMultibootInfo$print
	addl	$12, %esp
	retl
.Ltmp442:
	.size	kc_dump_multiboot, .Ltmp442-kc_dump_multiboot
	.cfi_endproc

	.globl	kc_dump_parseed_multiboot
	.align	16, 0x90
	.type	kc_dump_parseed_multiboot,@function
kc_dump_parseed_multiboot:              # @kc_dump_parseed_multiboot
	.cfi_startproc
# BB#0:
	subl	$28, %esp
.Ltmp443:
	.cfi_def_cfa_offset 32
	movl	32(%esp), %eax
	movl	%eax, 24(%esp)
	movl	gvar_fin_mu_lu_n22__mbinfo, %eax
	movzbl	8(%eax), %eax
	cmpl	$1, %eax
	jne	.LBB153_5
# BB#1:                                 # %if_fkappsconsole_mkc_dump_parseed_multiboot_l102_n6409___SUCC
	movl	gvar_fin_mu_lu_n8__kterm, %eax
	movl	%eax, (%esp)
	movl	$.Lstrglobal_fkappsconsole_mkc_dump_parseed_multiboot_l103_n6412, 4(%esp)
	calll	Terminal$print
	movl	gvar_fin_mu_lu_n8__kterm, %eax
	movl	gvar_fin_mu_lu_n22__mbinfo, %ecx
	movl	16(%ecx), %ecx
	movl	%ecx, 4(%esp)
	movl	%eax, (%esp)
	calll	Terminal$printl
	movl	gvar_fin_mu_lu_n8__kterm, %eax
	movl	%eax, (%esp)
	movl	$.Lstrglobal_fkappsconsole_mkc_dump_parseed_multiboot_l105_n6422, 4(%esp)
	calll	Terminal$print
	movl	gvar_fin_mu_lu_n8__kterm, %eax
	movl	gvar_fin_mu_lu_n22__mbinfo, %ecx
	movl	12(%ecx), %ecx
	movl	%ecx, 4(%esp)
	movl	%eax, (%esp)
	calll	Terminal$printl
	movl	gvar_fin_mu_lu_n8__kterm, %eax
	movl	%eax, (%esp)
	movl	$.Lstrglobal_fkappsconsole_mkc_dump_parseed_multiboot_l107_n6432, 4(%esp)
	calll	Terminal$print
	movl	gvar_fin_mu_lu_n8__kterm, %eax
	movl	gvar_fin_mu_lu_n22__mbinfo, %ecx
	movl	48(%ecx), %ecx
	movl	%ecx, 4(%esp)
	movl	%eax, (%esp)
	movl	$2, 8(%esp)
	calll	Terminal$dumphex
	movl	gvar_fin_mu_lu_n8__kterm, %eax
	movl	%eax, (%esp)
	movl	$.Lstrglobal_fkappsconsole_mkc_dump_parseed_multiboot_l109_n6443, 4(%esp)
	calll	Terminal$print
	movl	gvar_fin_mu_lu_n8__kterm, %eax
	movl	gvar_fin_mu_lu_n22__mbinfo, %ecx
	movl	52(%ecx), %ecx
	movl	%ecx, 4(%esp)
	movl	%eax, (%esp)
	calll	Terminal$printi
	movl	gvar_fin_mu_lu_n8__kterm, %eax
	movl	%eax, (%esp)
	movl	$.Lstrglobal_fkappsconsole_mkc_dump_parseed_multiboot_l111_n6453, 4(%esp)
	calll	Terminal$printl
	movl	gvar_fin_mu_lu_n22__mbinfo, %eax
	movzbl	20(%eax), %eax
	cmpl	$1, %eax
	jne	.LBB153_3
# BB#2:                                 # %if_fkappsconsole_mkc_dump_parseed_multiboot_l112_n6459___SUCC
	movl	gvar_fin_mu_lu_n8__kterm, %eax
	movl	%eax, (%esp)
	movl	$.Lstrglobal_fkappsconsole_mkc_dump_parseed_multiboot_l113_n6462, 4(%esp)
	jmp	.LBB153_4
.LBB153_5:                              # %if_fkappsconsole_mkc_dump_parseed_multiboot_l102_n6409___FAIL
	movl	gvar_fin_mu_lu_n8__kterm, %eax
	movl	%eax, (%esp)
	movl	$.Lstrglobal_fkappsconsole_mkc_dump_parseed_multiboot_l129_n6527, 4(%esp)
	jmp	.LBB153_6
.LBB153_3:                              # %if_fkappsconsole_mkc_dump_parseed_multiboot_l112_n6459___FAIL
	movl	gvar_fin_mu_lu_n8__kterm, %eax
	movl	%eax, (%esp)
	movl	$.Lstrglobal_fkappsconsole_mkc_dump_parseed_multiboot_l115_n6467, 4(%esp)
.LBB153_4:                              # %if_fkappsconsole_mkc_dump_parseed_multiboot_l112_n6459___DONE
	calll	Terminal$printl
	movl	gvar_fin_mu_lu_n8__kterm, %eax
	movl	%eax, (%esp)
	movl	$.Lstrglobal_fkappsconsole_mkc_dump_parseed_multiboot_l117_n6472, 4(%esp)
	calll	Terminal$print
	movl	gvar_fin_mu_lu_n8__kterm, %eax
	movl	gvar_fin_mu_lu_n22__mbinfo, %ecx
	movl	40(%ecx), %ecx
	movl	%ecx, 4(%esp)
	movl	%eax, (%esp)
	calll	Terminal$dumphexi
	movl	gvar_fin_mu_lu_n8__kterm, %eax
	movl	%eax, (%esp)
	movl	$.Lstrglobal_fkappsconsole_mkc_dump_parseed_multiboot_l119_n6482, 4(%esp)
	calll	Terminal$print
	movl	gvar_fin_mu_lu_n8__kterm, %eax
	movl	gvar_fin_mu_lu_n22__mbinfo, %ecx
	movl	24(%ecx), %ecx
	movl	%ecx, 4(%esp)
	movl	%eax, (%esp)
	calll	Terminal$printi
	movl	gvar_fin_mu_lu_n8__kterm, %eax
	movl	%eax, (%esp)
	movl	$.Lstrglobal_fkappsconsole_mkc_dump_parseed_multiboot_l121_n6492, 4(%esp)
	calll	Terminal$print
	movl	gvar_fin_mu_lu_n8__kterm, %eax
	movl	gvar_fin_mu_lu_n22__mbinfo, %ecx
	movl	28(%ecx), %ecx
	movl	%ecx, 4(%esp)
	movl	%eax, (%esp)
	calll	Terminal$printi
	movl	gvar_fin_mu_lu_n8__kterm, %eax
	movl	%eax, (%esp)
	movl	$.Lstrglobal_fkappsconsole_mkc_dump_parseed_multiboot_l123_n6502, 4(%esp)
	calll	Terminal$print
	movl	gvar_fin_mu_lu_n8__kterm, %eax
	movl	gvar_fin_mu_lu_n22__mbinfo, %ecx
	movl	36(%ecx), %ecx
	movl	%ecx, 4(%esp)
	movl	%eax, (%esp)
	calll	Terminal$printi
	movl	gvar_fin_mu_lu_n8__kterm, %eax
	movl	%eax, (%esp)
	movl	$.Lstrglobal_fkappsconsole_mkc_dump_parseed_multiboot_l125_n6512, 4(%esp)
	calll	Terminal$print
	movl	gvar_fin_mu_lu_n8__kterm, %eax
	movl	gvar_fin_mu_lu_n22__mbinfo, %ecx
	movl	32(%ecx), %ecx
	movl	%ecx, 4(%esp)
	movl	%eax, (%esp)
	calll	Terminal$printi
	movl	gvar_fin_mu_lu_n8__kterm, %eax
	movl	%eax, (%esp)
	movl	$.Lstrglobal_fkappsconsole_mkc_dump_parseed_multiboot_l127_n6522, 4(%esp)
.LBB153_6:                              # %if_fkappsconsole_mkc_dump_parseed_multiboot_l102_n6409___DONE
	calll	Terminal$printl
	addl	$28, %esp
	retl
.Ltmp444:
	.size	kc_dump_parseed_multiboot, .Ltmp444-kc_dump_parseed_multiboot
	.cfi_endproc

	.globl	kc_fault
	.align	16, 0x90
	.type	kc_fault,@function
kc_fault:                               # @kc_fault
	.cfi_startproc
# BB#0:
	pushl	%ebp
.Ltmp445:
	.cfi_def_cfa_offset 8
.Ltmp446:
	.cfi_offset %ebp, -8
	movl	%esp, %ebp
.Ltmp447:
	.cfi_def_cfa_register %ebp
	pushl	%esi
	pushl	%eax
.Ltmp448:
	.cfi_offset %esi, -12
	movl	8(%ebp), %eax
	movl	%eax, -8(%ebp)
	subl	$16, %esp
	movl	%eax, (%esp)
	movl	$.Lstrglobal_fkappsconsole_mkc_fault_l134_n6533, 4(%esp)
	calll	cstr$__eq__
	addl	$16, %esp
	testb	$1, %al
	je	.LBB154_2
# BB#1:                                 # %if_fkappsconsole_mkc_fault_l134_n6536___SUCC
	movl	%esp, %ecx
	leal	-16(%ecx), %eax
	movl	%eax, %esp
	xorl	%esi, %esi
	movl	$1, %eax
	xorl	%edx, %edx
	divl	%esi
	movl	%eax, -16(%ecx)
	jmp	.LBB154_7
.LBB154_2:                              # %if_fkappsconsole_mkc_fault_l134_n6536___FAIL
	movl	-8(%ebp), %eax
	subl	$16, %esp
	movl	%eax, (%esp)
	movl	$.Lstrglobal_fkappsconsole_mkc_fault_l134_n6543, 4(%esp)
	calll	cstr$__eq__
	addl	$16, %esp
	testb	$1, %al
	je	.LBB154_4
# BB#3:                                 # %if_fkappsconsole_mkc_fault_l134_n6546___SUCC
	movb	$0, -559038737
	jmp	.LBB154_7
.LBB154_4:                              # %if_fkappsconsole_mkc_fault_l134_n6546___FAIL
	movl	-8(%ebp), %eax
	subl	$16, %esp
	movl	%eax, (%esp)
	movl	$.Lstrglobal_fkappsconsole_mkc_fault_l134_n6557, 4(%esp)
	calll	cstr$__eq__
	addl	$16, %esp
	testb	$1, %al
	je	.LBB154_6
# BB#5:                                 # %if_fkappsconsole_mkc_fault_l134_n6560___SUCC
	movl	%esp, %eax
	leal	-16(%eax), %ecx
	movl	%ecx, %esp
	movb	-559038737, %cl
	movb	%cl, -16(%eax)
	jmp	.LBB154_7
.LBB154_6:                              # %if_fkappsconsole_mkc_fault_l134_n6560___FAIL
	movl	gvar_fin_mu_lu_n8__kterm, %eax
	subl	$16, %esp
	movl	%eax, (%esp)
	movl	$.Lstrglobal_fkappsconsole_mkc_fault_l141_n6571, 4(%esp)
	calll	Terminal$printl
	addl	$16, %esp
.LBB154_7:                              # %if_fkappsconsole_mkc_fault_l134_n6536___DONE
	leal	-4(%ebp), %esp
	popl	%esi
	popl	%ebp
	retl
.Ltmp449:
	.size	kc_fault, .Ltmp449-kc_fault
	.cfi_endproc

	.globl	kc_echo
	.align	16, 0x90
	.type	kc_echo,@function
kc_echo:                                # @kc_echo
	.cfi_startproc
# BB#0:
	subl	$12, %esp
.Ltmp450:
	.cfi_def_cfa_offset 16
	movl	16(%esp), %eax
	movl	%eax, 8(%esp)
	movl	gvar_fin_mu_lu_n8__kterm, %ecx
	movl	%eax, 4(%esp)
	movl	%ecx, (%esp)
	calll	Terminal$printl
	addl	$12, %esp
	retl
.Ltmp451:
	.size	kc_echo, .Ltmp451-kc_echo
	.cfi_endproc

	.globl	kc_addhex
	.align	16, 0x90
	.type	kc_addhex,@function
kc_addhex:                              # @kc_addhex
	.cfi_startproc
# BB#0:
	pushl	%edi
.Ltmp452:
	.cfi_def_cfa_offset 8
	pushl	%esi
.Ltmp453:
	.cfi_def_cfa_offset 12
	subl	$20, %esp
.Ltmp454:
	.cfi_def_cfa_offset 32
.Ltmp455:
	.cfi_offset %esi, -12
.Ltmp456:
	.cfi_offset %edi, -8
	movl	32(%esp), %eax
	movl	%eax, 16(%esp)
	movl	gvar_fin_mu_lu_n8__kterm, %edi
	movl	%eax, (%esp)
	movl	$0, 4(%esp)
	calll	cstr$idxi
	movl	%eax, (%esp)
	calll	hex_char_to_num
	movl	%eax, %esi
	movl	16(%esp), %eax
	movl	%eax, (%esp)
	movl	$2, 4(%esp)
	calll	cstr$idxi
	movl	%eax, (%esp)
	calll	hex_char_to_num
	addl	%esi, %eax
	movl	%eax, 4(%esp)
	movl	%edi, (%esp)
	movl	$2, 8(%esp)
	calll	Terminal$dumphex
	addl	$20, %esp
	popl	%esi
	popl	%edi
	retl
.Ltmp457:
	.size	kc_addhex, .Ltmp457-kc_addhex
	.cfi_endproc

	.globl	kc_clear
	.align	16, 0x90
	.type	kc_clear,@function
kc_clear:                               # @kc_clear
	.cfi_startproc
# BB#0:
	subl	$12, %esp
.Ltmp458:
	.cfi_def_cfa_offset 16
	movl	16(%esp), %eax
	movl	%eax, 8(%esp)
	movl	gvar_fin_mu_lu_n22__mbinfo, %eax
	movb	20(%eax), %al
	testb	%al, %al
	jne	.LBB157_2
# BB#1:                                 # %if_fkappsconsole_mkc_clear_l154_n6600___SUCC
	movl	gvar_fgfxterm_mu_lu_n19__console_emulator, %eax
	movl	%eax, (%esp)
	calll	VGATextModeEmulator$clear
.LBB157_2:                              # %if_fkappsconsole_mkc_clear_l154_n6600___DONE
	movl	gvar_fin_mu_lu_n8__kterm, %eax
	movl	%eax, (%esp)
	calll	Terminal$blank
	movl	gvar_fin_mu_lu_n8__kterm, %eax
	movl	$0, 12(%eax)
	movl	gvar_fin_mu_lu_n8__kterm, %eax
	movl	$-1, 16(%eax)
	addl	$12, %esp
	retl
.Ltmp459:
	.size	kc_clear, .Ltmp459-kc_clear
	.cfi_endproc

	.globl	kc_hexnum
	.align	16, 0x90
	.type	kc_hexnum,@function
kc_hexnum:                              # @kc_hexnum
	.cfi_startproc
# BB#0:
	pushl	%esi
.Ltmp460:
	.cfi_def_cfa_offset 8
	subl	$24, %esp
.Ltmp461:
	.cfi_def_cfa_offset 32
.Ltmp462:
	.cfi_offset %esi, -8
	movl	32(%esp), %eax
	movl	%eax, 20(%esp)
	movl	gvar_fin_mu_lu_n8__kterm, %eax
	movl	%eax, (%esp)
	movl	$.Lstrglobal_fkappsconsole_mkc_hexnum_l164_n6615, 4(%esp)
	calll	Terminal$print
	movl	gvar_fin_mu_lu_n8__kterm, %esi
	movl	20(%esp), %eax
	movl	%eax, (%esp)
	movl	$0, 4(%esp)
	calll	cstr$idxi
